EXPORTS 
	??_R0?AV?$_Iosb@H@std@@@8 	 DATA
	??_R0?AV?$basic_ios@DU?$char_traits@D@std@@@std@@@8 	 DATA
	??_R0?AV?$basic_ostream@DU?$char_traits@D@std@@@std@@@8 	 DATA
	??_R0?AV?$basic_ostringstream@DU?$char_traits@D@std@@V?$allocator@D@2@@std@@@8 	 DATA
	??_R0?AV?$basic_streambuf@DU?$char_traits@D@std@@@std@@@8 	 DATA
	??_R0?AV?$basic_stringbuf@DU?$char_traits@D@std@@V?$allocator@D@2@@std@@@8 	 DATA
	??_R0?AVbad_alloc@std@@@8 	 DATA
	??_R0?AVbad_array_new_length@std@@@8 	 DATA
	??_R0?AVbad_cast@std@@@8 	 DATA
	??_R0?AVexception@std@@@8 	 DATA
	??_R0?AVios_base@std@@@8 	 DATA
	?_Psave@?$_Facetptr@V?$time_put@DV?$ostreambuf_iterator@DU?$char_traits@D@std@@@std@@@std@@@std@@2PEBVfacet@locale@2@EB 	 DATA
	_Avx2WmemEnabledWeakValue 	 DATA
	??$?0$$V@?$_Compressed_pair@U?$default_delete@VIResultStream@tablemax@@@std@@PEAVIResultStream@tablemax@@$00@std@@QEAA@U_Zero_then_variadic_args_t@1@@Z
	??$?0$$V@?$_Compressed_pair@V?$allocator@D@std@@V?$_String_val@U?$_Simple_types@D@std@@@2@$00@std@@QEAA@U_Zero_then_variadic_args_t@1@@Z
	??$?0$$V@?$_Compressed_pair@V?$allocator@UColumnInfo@tablemax@@@std@@V?$_Vector_val@U?$_Simple_types@UColumnInfo@tablemax@@@std@@@2@$00@std@@QEAA@U_Zero_then_variadic_args_t@1@@Z
	??$?0$$V@?$_Compressed_pair@V?$allocator@ULoadedPlugin@tablemax@@@std@@V?$_Vector_val@U?$_Simple_types@ULoadedPlugin@tablemax@@@std@@@2@$00@std@@QEAA@U_Zero_then_variadic_args_t@1@@Z
	??$?0$$V@?$_Compressed_pair@V?$allocator@UPluginEntry@tablemax@@@std@@V?$_Vector_val@U?$_Simple_types@UPluginEntry@tablemax@@@std@@@2@$00@std@@QEAA@U_Zero_then_variadic_args_t@1@@Z
	??$?0AEAPEAU?$_List_node@U?$pair@QEAXUConnectionEntry@tablemax@@@std@@PEAX@std@@_N$0A@@?$pair@PEAU?$_List_node@U?$pair@QEAXUConnectionEntry@tablemax@@@std@@PEAX@std@@_N@std@@QEAA@AEAPEAU?$_List_node@U?$pair@QEAXUConnectionEntry@tablemax@@@std@@PEAX@1@$$QEA_N@Z
	??$?0AEAPEAV_Facet_base@std@@@?$_Compressed_pair@U?$default_delete@V_Facet_base@std@@@std@@PEAV_Facet_base@2@$00@std@@QEAA@U_Zero_then_variadic_args_t@1@AEAPEAV_Facet_base@1@@Z
	??$?0AEBQEAX$$Z$$V@?$pair@QEAXUConnectionEntry@tablemax@@@std@@QEAA@Upiecewise_construct_t@1@V?$tuple@AEBQEAX@1@V?$tuple@$$V@1@@Z
	??$?0AEBQEAX$0A@@?$tuple@AEBQEAX@std@@QEAA@AEBQEAX@Z
	??$?0AEBQEAX@?$_Tuple_val@AEBQEAX@std@@QEAA@AEBQEAX@Z
	??$?0AEBUpiecewise_construct_t@std@@V?$tuple@AEBQEAX@1@V?$tuple@$$V@1@@?$_List_node_emplace_op2@V?$allocator@U?$_List_node@U?$pair@QEAXUConnectionEntry@tablemax@@@std@@PEAX@std@@@std@@@std@@QEAA@AEAV?$allocator@U?$_List_node@U?$pair@QEAXUConnectionEntry@tablemax@@@std@@PEAX@std@@@1@AEBUpiecewise_construct_t@1@$$QEAV?$tuple@AEBQEAX@1@$$QEAV?$tuple@$$V@1@@Z
	??$?0AEBV?$allocator@D@std@@$$V@?$_Compressed_pair@V?$allocator@D@std@@V?$_String_val@U?$_Simple_types@D@std@@@2@$00@std@@QEAA@U_One_then_variadic_args_t@1@AEBV?$allocator@D@1@@Z
	??$?0AEBV?$allocator@U?$pair@QEAXUConnectionEntry@tablemax@@@std@@@std@@$$V@?$_Compressed_pair@V?$allocator@U?$_List_node@U?$pair@QEAXUConnectionEntry@tablemax@@@std@@PEAX@std@@@std@@V?$_List_val@U?$_List_simple_types@U?$pair@QEAXUConnectionEntry@tablemax@@@std@@@std@@@2@$00@std@@QEAA@U_One_then_variadic_args_t@1@AEBV?$allocator@U?$pair@QEAXUConnectionEntry@tablemax@@@std@@@1@@Z
	??$?0AEBV?$allocator@U?$pair@QEAXUConnectionEntry@tablemax@@@std@@@std@@$$V@?$_Compressed_pair@V?$allocator@V?$_List_unchecked_iterator@V?$_List_val@U?$_List_simple_types@U?$pair@QEAXUConnectionEntry@tablemax@@@std@@@std@@@std@@@std@@@std@@V?$_Vector_val@U?$_Simple_types@V?$_List_unchecked_iterator@V?$_List_val@U?$_List_simple_types@U?$pair@QEAXUConnectionEntry@tablemax@@@std@@@std@@@std@@@std@@@std@@@2@$00@std@@QEAA@U_One_then_variadic_args_t@1@AEBV?$allocator@U?$pair@QEAXUConnectionEntry@tablemax@@@std@@@1@@Z
	??$?0AEBV?$allocator@U?$pair@QEAXUConnectionEntry@tablemax@@@std@@@std@@$0A@@?$_Hash_vec@V?$allocator@V?$_List_unchecked_iterator@V?$_List_val@U?$_List_simple_types@U?$pair@QEAXUConnectionEntry@tablemax@@@std@@@std@@@std@@@std@@@std@@@std@@QEAA@AEBV?$allocator@U?$pair@QEAXUConnectionEntry@tablemax@@@std@@@1@@Z
	??$?0M@?$_Compressed_pair@U?$equal_to@PEAX@std@@M$00@std@@QEAA@U_Zero_then_variadic_args_t@1@$$QEAM@Z
	??$?0PEAU?$_List_node@U?$pair@QEAXUConnectionEntry@tablemax@@@std@@PEAX@std@@_N$0A@@?$pair@PEAU?$_List_node@U?$pair@QEAXUConnectionEntry@tablemax@@@std@@PEAX@std@@_N@std@@QEAA@$$QEAPEAU?$_List_node@U?$pair@QEAXUConnectionEntry@tablemax@@@std@@PEAX@1@$$QEA_N@Z
	??$?0U?$default_delete@VIResultStream@tablemax@@@std@@$0A@@?$unique_ptr@VIResultStream@tablemax@@U?$default_delete@VIResultStream@tablemax@@@std@@@std@@QEAA@XZ
	??$?0U?$default_delete@V_Facet_base@std@@@std@@$0A@@?$unique_ptr@V_Facet_base@std@@U?$default_delete@V_Facet_base@std@@@2@@std@@QEAA@PEAV_Facet_base@1@@Z
	??$?0U?$pair@QEAXUConnectionEntry@tablemax@@@std@@@?$allocator@U?$_List_node@U?$pair@QEAXUConnectionEntry@tablemax@@@std@@PEAX@std@@@std@@QEAA@AEBV?$allocator@U?$pair@QEAXUConnectionEntry@tablemax@@@std@@@1@@Z
	??$?0U?$pair@QEAXUConnectionEntry@tablemax@@@std@@@?$allocator@V?$_List_unchecked_iterator@V?$_List_val@U?$_List_simple_types@U?$pair@QEAXUConnectionEntry@tablemax@@@std@@@std@@@std@@@std@@@std@@QEAA@AEBV?$allocator@U?$pair@QEAXUConnectionEntry@tablemax@@@std@@@1@@Z
	??$?0U_Exact_args_t@std@@$0A@@?$tuple@$$V@std@@QEAA@U_Exact_args_t@1@@Z
	??$?0U_Exact_args_t@std@@AEBQEAX$$V$0A@@?$tuple@AEBQEAX@std@@QEAA@U_Exact_args_t@1@AEBQEAX@Z
	??$?0U_Zero_then_variadic_args_t@std@@M@?$_Compressed_pair@U?$hash@PEAX@std@@V?$_Compressed_pair@U?$equal_to@PEAX@std@@M$00@2@$00@std@@QEAA@U_Zero_then_variadic_args_t@1@$$QEAU21@$$QEAM@Z
	??$?0V?$allocator@D@std@@$$V@?$_Compressed_pair@V?$allocator@D@std@@V?$_String_val@U?$_Simple_types@D@std@@@2@$00@std@@QEAA@U_One_then_variadic_args_t@1@$$QEAV?$allocator@D@1@@Z
	??$?0V?$allocator@ULoadedPlugin@tablemax@@@std@@PEAULoadedPlugin@tablemax@@PEAU23@PEAU23@@?$_Compressed_pair@V?$allocator@ULoadedPlugin@tablemax@@@std@@V?$_Vector_val@U?$_Simple_types@ULoadedPlugin@tablemax@@@std@@@2@$00@std@@QEAA@U_One_then_variadic_args_t@1@$$QEAV?$allocator@ULoadedPlugin@tablemax@@@1@$$QEAPEAULoadedPlugin@tablemax@@22@Z
	??$?0V?$tuple@AEBQEAX@std@@V?$tuple@$$V@1@$0A@$$Z$S@?$pair@QEAXUConnectionEntry@tablemax@@@std@@AEAA@AEAV?$tuple@AEBQEAX@1@AEAV?$tuple@$$V@1@U?$integer_sequence@_K$0A@@1@U?$integer_sequence@_K$S@1@@Z
	??$?0_J$0A@@?$duration@_JU?$ratio@$00$00@std@@@chrono@std@@QEAA@AEB_J@Z
	??$?0_J$0A@@?$duration@_JU?$ratio@$00$0JIJGIA@@std@@@chrono@std@@QEAA@AEB_J@Z
	??$?4U?$default_delete@VIResultStream@tablemax@@@std@@$0A@@?$unique_ptr@VIResultStream@tablemax@@U?$default_delete@VIResultStream@tablemax@@@std@@@std@@QEAAAEAV01@$$QEAV01@@Z
	??$?6DU?$char_traits@D@std@@@std@@YAAEAV?$basic_ostream@DU?$char_traits@D@std@@@0@AEAV10@AEBU?$_Timeobj@DPEBUtm@@@0@@Z
	??$?6DU?$char_traits@D@std@@V?$allocator@D@1@@std@@YAAEAV?$basic_ostream@DU?$char_traits@D@std@@@0@AEAV10@AEBV?$basic_string@DU?$char_traits@D@std@@V?$allocator@D@2@@0@@Z
	??$?6U?$char_traits@D@std@@@std@@YAAEAV?$basic_ostream@DU?$char_traits@D@std@@@0@AEAV10@PEBD@Z
	??$?8DU?$char_traits@D@std@@V?$allocator@D@1@@std@@YA_NAEBV?$basic_string@DU?$char_traits@D@std@@V?$allocator@D@2@@0@QEBD@Z
	??$?HDU?$char_traits@D@std@@V?$allocator@D@1@@std@@YA?AV?$basic_string@DU?$char_traits@D@std@@V?$allocator@D@2@@0@$$QEAV10@QEBD@Z
	??$?HDU?$char_traits@D@std@@V?$allocator@D@1@@std@@YA?AV?$basic_string@DU?$char_traits@D@std@@V?$allocator@D@2@@0@AEBV10@QEBD@Z
	??$?RPEAX@?$_Uhash_compare@PEAXU?$hash@PEAX@std@@U?$equal_to@PEAX@2@@std@@QEBA_KAEBQEAX@Z
	??$?RPEAXPEAX@?$_Uhash_compare@PEAXU?$hash@PEAX@std@@U?$equal_to@PEAX@2@@std@@QEBA_NAEBQEAX0@Z
	??$_Adl_verify_range@PEAV?$_List_unchecked_iterator@V?$_List_val@U?$_List_simple_types@U?$pair@QEAXUConnectionEntry@tablemax@@@std@@@std@@@std@@@std@@PEAV12@@std@@YAXAEBQEAV?$_List_unchecked_iterator@V?$_List_val@U?$_List_simple_types@U?$pair@QEAXUConnectionEntry@tablemax@@@std@@@std@@@std@@@0@0@Z
	??$_Allocate@$0BA@U_Default_allocate_traits@std@@@std@@YAPEAX_K@Z
	??$_Allocate_at_least_helper@V?$allocator@D@std@@@std@@YAPEADAEAV?$allocator@D@0@AEA_K@Z
	??$_Allocate_at_least_helper@V?$allocator@ULoadedPlugin@tablemax@@@std@@@std@@YAPEAULoadedPlugin@tablemax@@AEAV?$allocator@ULoadedPlugin@tablemax@@@0@AEA_K@Z
	??$_Allocate_for_capacity@$0A@@?$basic_string@DU?$char_traits@D@std@@V?$allocator@D@2@@std@@CAPEADAEAV?$allocator@D@1@AEA_K@Z
	??$_Allocate_manually_vector_aligned@U_Default_allocate_traits@std@@@std@@YAPEAX_K@Z
	??$_Append@D@?$basic_string@DU?$char_traits@D@std@@V?$allocator@D@2@@std@@AEAAAEAV01@QEBD_K@Z
	??$_Assign@D@?$basic_string@DU?$char_traits@D@std@@V?$allocator@D@2@@std@@AEAAAEAV01@QEBD_K@Z
	??$_Construct@$00PEBD@?$basic_string@DU?$char_traits@D@std@@V?$allocator@D@2@@std@@AEAAXQEBD_K@Z
	??$_Construct_in_place@PEADAEAPEAD@std@@YAXAEAPEAD0@Z
	??$_Construct_in_place@PEADAEBQEAD@std@@YAXAEAPEADAEBQEAD@Z
	??$_Construct_in_place@PEAU?$_List_node@U?$pair@QEAXUConnectionEntry@tablemax@@@std@@PEAX@std@@AEAPEAU12@@std@@YAXAEAPEAU?$_List_node@U?$pair@QEAXUConnectionEntry@tablemax@@@std@@PEAX@0@0@Z
	??$_Construct_in_place@PEAU?$_List_node@U?$pair@QEAXUConnectionEntry@tablemax@@@std@@PEAX@std@@AEBQEAU12@@std@@YAXAEAPEAU?$_List_node@U?$pair@QEAXUConnectionEntry@tablemax@@@std@@PEAX@0@AEBQEAU10@@Z
	??$_Construct_in_place@ULoadedPlugin@tablemax@@U12@@std@@YAXAEAULoadedPlugin@tablemax@@$$QEAU12@@Z
	??$_Construct_in_place@V?$_List_unchecked_iterator@V?$_List_val@U?$_List_simple_types@U?$pair@QEAXUConnectionEntry@tablemax@@@std@@@std@@@std@@@std@@AEBV12@@std@@YAXAEAV?$_List_unchecked_iterator@V?$_List_val@U?$_List_simple_types@U?$pair@QEAXUConnectionEntry@tablemax@@@std@@@std@@@std@@@0@AEBV10@@Z
	??$_Convert_size@_K_K@std@@YA_K_K@Z
	??$_Deallocate@$0BA@@std@@YAXPEAX_K@Z
	??$_Destroy_in_place@PEAD@std@@YAXAEAPEAD@Z
	??$_Destroy_in_place@PEAU?$_List_node@U?$pair@QEAXUConnectionEntry@tablemax@@@std@@PEAX@std@@@std@@YAXAEAPEAU?$_List_node@U?$pair@QEAXUConnectionEntry@tablemax@@@std@@PEAX@0@@Z
	??$_Destroy_range@PEAV?$_List_unchecked_iterator@V?$_List_val@U?$_List_simple_types@U?$pair@QEAXUConnectionEntry@tablemax@@@std@@@std@@@std@@@std@@PEAV12@@std@@YAXPEAV?$_List_unchecked_iterator@V?$_List_val@U?$_List_simple_types@U?$pair@QEAXUConnectionEntry@tablemax@@@std@@@std@@@std@@@0@QEAV10@@Z
	??$_Destroy_range@V?$allocator@U?$pair@V?$basic_string@DU?$char_traits@D@std@@V?$allocator@D@2@@std@@V12@@std@@@std@@@std@@YAXPEAU?$pair@V?$basic_string@DU?$char_traits@D@std@@V?$allocator@D@2@@std@@V12@@0@QEAU10@AEAV?$allocator@U?$pair@V?$basic_string@DU?$char_traits@D@std@@V?$allocator@D@2@@std@@V12@@std@@@0@@Z
	??$_Destroy_range@V?$allocator@UColumnInfo@tablemax@@@std@@@std@@YAXPEAUColumnInfo@tablemax@@QEAU12@AEAV?$allocator@UColumnInfo@tablemax@@@0@@Z
	??$_Destroy_range@V?$allocator@ULoadedPlugin@tablemax@@@std@@@std@@YAXPEAULoadedPlugin@tablemax@@QEAU12@AEAV?$allocator@ULoadedPlugin@tablemax@@@0@@Z
	??$_Destroy_range@V?$allocator@UPluginEntry@tablemax@@@std@@@std@@YAXPEAUPluginEntry@tablemax@@QEAU12@AEAV?$allocator@UPluginEntry@tablemax@@@0@@Z
	??$_Destroy_range@V?$allocator@V?$basic_string@DU?$char_traits@D@std@@V?$allocator@D@2@@std@@@std@@@std@@YAXPEAV?$basic_string@DU?$char_traits@D@std@@V?$allocator@D@2@@0@QEAV10@AEAV?$allocator@V?$basic_string@DU?$char_traits@D@std@@V?$allocator@D@2@@std@@@0@@Z
	??$_Destroy_range@V?$allocator@V?$vector@U?$pair@V?$basic_string@DU?$char_traits@D@std@@V?$allocator@D@2@@std@@V12@@std@@V?$allocator@U?$pair@V?$basic_string@DU?$char_traits@D@std@@V?$allocator@D@2@@std@@V12@@std@@@2@@std@@@std@@@std@@YAXPEAV?$vector@U?$pair@V?$basic_string@DU?$char_traits@D@std@@V?$allocator@D@2@@std@@V12@@std@@V?$allocator@U?$pair@V?$basic_string@DU?$char_traits@D@std@@V?$allocator@D@2@@std@@V12@@std@@@2@@0@QEAV10@AEAV?$allocator@V?$vector@U?$pair@V?$basic_string@DU?$char_traits@D@std@@V?$allocator@D@2@@std@@V12@@std@@V?$allocator@U?$pair@V?$basic_string@DU?$char_traits@D@std@@V?$allocator@D@2@@std@@V12@@std@@@2@@std@@@0@@Z
	??$_Emplace_back@AEBV?$_List_unchecked_iterator@V?$_List_val@U?$_List_simple_types@U?$pair@QEAXUConnectionEntry@tablemax@@@std@@@std@@@std@@@std@@@?$_Uninitialized_backout@PEAV?$_List_unchecked_iterator@V?$_List_val@U?$_List_simple_types@U?$pair@QEAXUConnectionEntry@tablemax@@@std@@@std@@@std@@@std@@@std@@QEAAXAEBV?$_List_unchecked_iterator@V?$_List_val@U?$_List_simple_types@U?$pair@QEAXUConnectionEntry@tablemax@@@std@@@std@@@std@@@1@@Z
	??$_Emplace_back@ULoadedPlugin@tablemax@@@?$_Uninitialized_backout_al@V?$allocator@ULoadedPlugin@tablemax@@@std@@@std@@QEAAX$$QEAULoadedPlugin@tablemax@@@Z
	??$_Emplace_back_with_unused_capacity@ULoadedPlugin@tablemax@@@?$vector@ULoadedPlugin@tablemax@@V?$allocator@ULoadedPlugin@tablemax@@@std@@@std@@AEAAAEAULoadedPlugin@tablemax@@$$QEAU23@@Z
	??$_Emplace_one_at_back@ULoadedPlugin@tablemax@@@?$vector@ULoadedPlugin@tablemax@@V?$allocator@ULoadedPlugin@tablemax@@@std@@@std@@AEAAAEAULoadedPlugin@tablemax@@$$QEAU23@@Z
	??$_Emplace_reallocate@ULoadedPlugin@tablemax@@@?$vector@ULoadedPlugin@tablemax@@V?$allocator@ULoadedPlugin@tablemax@@@std@@@std@@AEAAPEAULoadedPlugin@tablemax@@QEAU23@$$QEAU23@@Z
	??$_Find@PEAX@?$_Hash@V?$_Umap_traits@PEAXUConnectionEntry@tablemax@@V?$_Uhash_compare@PEAXU?$hash@PEAX@std@@U?$equal_to@PEAX@2@@std@@V?$allocator@U?$pair@QEAXUConnectionEntry@tablemax@@@std@@@4@$0A@@std@@@std@@AEBAPEAU?$_List_node@U?$pair@QEAXUConnectionEntry@tablemax@@@std@@PEAX@1@AEBQEAX_K@Z
	??$_Find_last@PEAX@?$_Hash@V?$_Umap_traits@PEAXUConnectionEntry@tablemax@@V?$_Uhash_compare@PEAXU?$hash@PEAX@std@@U?$equal_to@PEAX@2@@std@@V?$allocator@U?$pair@QEAXUConnectionEntry@tablemax@@@std@@@4@$0A@@std@@@std@@IEBA?AU?$_Hash_find_last_result@PEAU?$_List_node@U?$pair@QEAXUConnectionEntry@tablemax@@@std@@PEAX@std@@@1@AEBQEAX_K@Z
	??$_Fnv1a_append_value@PEAX@std@@YA_K_KAEBQEAX@Z
	??$_Free_non_head@V?$allocator@U?$_List_node@U?$pair@QEAXUConnectionEntry@tablemax@@@std@@PEAX@std@@@std@@@?$_List_node@U?$pair@QEAXUConnectionEntry@tablemax@@@std@@PEAX@std@@SAXAEAV?$allocator@U?$_List_node@U?$pair@QEAXUConnectionEntry@tablemax@@@std@@PEAX@std@@@1@PEAU01@@Z
	??$_Freenode0@V?$allocator@U?$_List_node@U?$pair@QEAXUConnectionEntry@tablemax@@@std@@PEAX@std@@@std@@@?$_List_node@U?$pair@QEAXUConnectionEntry@tablemax@@@std@@PEAX@std@@SAXAEAV?$allocator@U?$_List_node@U?$pair@QEAXUConnectionEntry@tablemax@@@std@@PEAX@std@@@1@PEAU01@@Z
	??$_Freenode@V?$allocator@U?$_List_node@U?$pair@QEAXUConnectionEntry@tablemax@@@std@@PEAX@std@@@std@@@?$_List_node@U?$pair@QEAXUConnectionEntry@tablemax@@@std@@PEAX@std@@SAXAEAV?$allocator@U?$_List_node@U?$pair@QEAXUConnectionEntry@tablemax@@@std@@PEAX@std@@@1@PEAU01@@Z
	??$_Get_index@$0A@@id@locale@std@@QEAA_KXZ
	??$_Get_proxy_allocator@V?$allocator@D@std@@@std@@YA?AU_Fake_allocator@0@AEBV?$allocator@D@0@@Z
	??$_Get_proxy_allocator@V?$allocator@U?$_List_node@U?$pair@QEAXUConnectionEntry@tablemax@@@std@@PEAX@std@@@std@@@std@@YA?AU_Fake_allocator@0@AEBV?$allocator@U?$_List_node@U?$pair@QEAXUConnectionEntry@tablemax@@@std@@PEAX@std@@@0@@Z
	??$_Get_proxy_allocator@V?$allocator@UColumnInfo@tablemax@@@std@@@std@@YA?AU_Fake_allocator@0@AEBV?$allocator@UColumnInfo@tablemax@@@0@@Z
	??$_Get_proxy_allocator@V?$allocator@ULoadedPlugin@tablemax@@@std@@@std@@YA?AU_Fake_allocator@0@AEBV?$allocator@ULoadedPlugin@tablemax@@@0@@Z
	??$_Get_proxy_allocator@V?$allocator@UPluginEntry@tablemax@@@std@@@std@@YA?AU_Fake_allocator@0@AEBV?$allocator@UPluginEntry@tablemax@@@0@@Z
	??$_Get_proxy_allocator@V?$allocator@V?$_List_unchecked_iterator@V?$_List_val@U?$_List_simple_types@U?$pair@QEAXUConnectionEntry@tablemax@@@std@@@std@@@std@@@std@@@std@@@std@@YA?AU_Fake_allocator@0@AEBV?$allocator@V?$_List_unchecked_iterator@V?$_List_val@U?$_List_simple_types@U?$pair@QEAXUConnectionEntry@tablemax@@@std@@@std@@@std@@@std@@@0@@Z
	??$_Get_size_of_n@$00@std@@YA_K_K@Z
	??$_Get_size_of_n@$07@std@@YA_K_K@Z
	??$_Get_size_of_n@$0EI@@std@@YA_K_K@Z
	??$_Get_size_of_n@$0FI@@std@@YA_K_K@Z
	??$_Get_unwrapped@AEBQEAULoadedPlugin@tablemax@@@std@@YA?A_TAEBQEAULoadedPlugin@tablemax@@@Z
	??$_Get_unwrapped@AEBQEAV?$_List_unchecked_iterator@V?$_List_val@U?$_List_simple_types@U?$pair@QEAXUConnectionEntry@tablemax@@@std@@@std@@@std@@@std@@@std@@YA?A_TAEBQEAV?$_List_unchecked_iterator@V?$_List_val@U?$_List_simple_types@U?$pair@QEAXUConnectionEntry@tablemax@@@std@@@std@@@std@@@0@@Z
	??$_Getvals@_W@?$time_get@DV?$istreambuf_iterator@DU?$char_traits@D@std@@@std@@@std@@IEAAX_WAEBV_Locinfo@1@@Z
	??$_Getvals@_W@?$time_get@_WV?$istreambuf_iterator@_WU?$char_traits@_W@std@@@std@@@std@@IEAAX_WAEBV_Locinfo@1@@Z
	??$_Hash_representation@PEAX@std@@YA_KAEBQEAX@Z
	??$_Insert_string@DU?$char_traits@D@std@@_K@std@@YAAEAV?$basic_ostream@DU?$char_traits@D@std@@@0@AEAV10@QEBD_K@Z
	??$_Kfn@QEAXUConnectionEntry@tablemax@@@?$_Umap_traits@PEAXUConnectionEntry@tablemax@@V?$_Uhash_compare@PEAXU?$hash@PEAX@std@@U?$equal_to@PEAX@2@@std@@V?$allocator@U?$pair@QEAXUConnectionEntry@tablemax@@@std@@@4@$0A@@std@@SAAEBQEAXAEBU?$pair@QEAXUConnectionEntry@tablemax@@@1@@Z
	??$_Max_limit@_J@std@@YA_JXZ
	??$_Pocca@V?$allocator@D@std@@@std@@YAXAEAV?$allocator@D@0@AEBV10@@Z
	??$_Pocma@V?$allocator@D@std@@@std@@YAXAEAV?$allocator@D@0@0@Z
	??$_Pocma@V?$allocator@UColumnInfo@tablemax@@@std@@@std@@YAXAEAV?$allocator@UColumnInfo@tablemax@@@0@0@Z
	??$_Reallocate_for@V<lambda_a132b9f505f015b07a26cb4edca31da2>@@PEBD@?$basic_string@DU?$char_traits@D@std@@V?$allocator@D@2@@std@@AEAAAEAV01@_KV<lambda_a132b9f505f015b07a26cb4edca31da2>@@PEBD@Z
	??$_Reallocate_grow_by@V<lambda_6e107f859707de1a71dcca60860853b1>@@PEBD_K@?$basic_string@DU?$char_traits@D@std@@V?$allocator@D@2@@std@@AEAAAEAV01@_KV<lambda_6e107f859707de1a71dcca60860853b1>@@PEBD_K@Z
	??$_Traits_copy_batch@U?$char_traits@D@std@@D@std@@YAXQEADQEBD_K@Z
	??$_Traits_equal@U?$char_traits@D@std@@@std@@YA_NQEBD_K01@Z
	??$_Traits_move_batch@U?$char_traits@D@std@@D@std@@YAXQEADQEBD_K@Z
	??$_Try_emplace@AEBQEAX$$V@?$_Hash@V?$_Umap_traits@PEAXUConnectionEntry@tablemax@@V?$_Uhash_compare@PEAXU?$hash@PEAX@std@@U?$equal_to@PEAX@2@@std@@V?$allocator@U?$pair@QEAXUConnectionEntry@tablemax@@@std@@@4@$0A@@std@@@std@@IEAA?AU?$pair@PEAU?$_List_node@U?$pair@QEAXUConnectionEntry@tablemax@@@std@@PEAX@std@@_N@1@AEBQEAX@Z
	??$_Tuple_get@$0A@AEBQEAX@std@@YA$$QEA_P$$QEAV?$tuple@AEBQEAX@0@@Z
	??$_Unfancy@D@std@@YAPEADPEAD@Z
	??$_Unfancy@U?$pair@V?$basic_string@DU?$char_traits@D@std@@V?$allocator@D@2@@std@@V12@@std@@@std@@YAPEAU?$pair@V?$basic_string@DU?$char_traits@D@std@@V?$allocator@D@2@@std@@V12@@0@PEAU10@@Z
	??$_Unfancy@UColumnInfo@tablemax@@@std@@YAPEAUColumnInfo@tablemax@@PEAU12@@Z
	??$_Unfancy@ULoadedPlugin@tablemax@@@std@@YAPEAULoadedPlugin@tablemax@@PEAU12@@Z
	??$_Unfancy@UPluginEntry@tablemax@@@std@@YAPEAUPluginEntry@tablemax@@PEAU12@@Z
	??$_Unfancy@V?$basic_string@DU?$char_traits@D@std@@V?$allocator@D@2@@std@@@std@@YAPEAV?$basic_string@DU?$char_traits@D@std@@V?$allocator@D@2@@0@PEAV10@@Z
	??$_Unfancy@V?$vector@U?$pair@V?$basic_string@DU?$char_traits@D@std@@V?$allocator@D@2@@std@@V12@@std@@V?$allocator@U?$pair@V?$basic_string@DU?$char_traits@D@std@@V?$allocator@D@2@@std@@V12@@std@@@2@@std@@@std@@YAPEAV?$vector@U?$pair@V?$basic_string@DU?$char_traits@D@std@@V?$allocator@D@2@@std@@V12@@std@@V?$allocator@U?$pair@V?$basic_string@DU?$char_traits@D@std@@V?$allocator@D@2@@std@@V12@@std@@@2@@0@PEAV10@@Z
	??$_Unfancy_maybe_null@UPluginEntry@tablemax@@@std@@YAPEAUPluginEntry@tablemax@@PEAU12@@Z
	??$_Uninitialized_move@PEAULoadedPlugin@tablemax@@V?$allocator@ULoadedPlugin@tablemax@@@std@@@std@@YAPEAULoadedPlugin@tablemax@@QEAU12@0PEAU12@AEAV?$allocator@ULoadedPlugin@tablemax@@@0@@Z
	??$addressof@$$CBV?$_List_val@U?$_List_simple_types@U?$pair@QEAXUConnectionEntry@tablemax@@@std@@@std@@@std@@@std@@YAPEBV?$_List_val@U?$_List_simple_types@U?$pair@QEAXUConnectionEntry@tablemax@@@std@@@std@@@0@AEBV10@@Z
	??$addressof@$$CBV?$basic_string@DU?$char_traits@D@std@@V?$allocator@D@2@@std@@@std@@YAPEBV?$basic_string@DU?$char_traits@D@std@@V?$allocator@D@2@@0@AEBV10@@Z
	??$addressof@D@std@@YAPEADAEAD@Z
	??$addressof@PEAD@std@@YAPEAPEADAEAPEAD@Z
	??$addressof@PEAU?$_List_node@U?$pair@QEAXUConnectionEntry@tablemax@@@std@@PEAX@std@@@std@@YAPEAPEAU?$_List_node@U?$pair@QEAXUConnectionEntry@tablemax@@@std@@PEAX@0@AEAPEAU10@@Z
	??$addressof@U?$pair@QEAXUConnectionEntry@tablemax@@@std@@@std@@YAPEAU?$pair@QEAXUConnectionEntry@tablemax@@@0@AEAU10@@Z
	??$addressof@ULoadedPlugin@tablemax@@@std@@YAPEAULoadedPlugin@tablemax@@AEAU12@@Z
	??$addressof@V?$_List_unchecked_iterator@V?$_List_val@U?$_List_simple_types@U?$pair@QEAXUConnectionEntry@tablemax@@@std@@@std@@@std@@@std@@@std@@YAPEAV?$_List_unchecked_iterator@V?$_List_val@U?$_List_simple_types@U?$pair@QEAXUConnectionEntry@tablemax@@@std@@@std@@@std@@@0@AEAV10@@Z
	??$addressof@V?$_List_val@U?$_List_simple_types@U?$pair@QEAXUConnectionEntry@tablemax@@@std@@@std@@@std@@@std@@YAPEAV?$_List_val@U?$_List_simple_types@U?$pair@QEAXUConnectionEntry@tablemax@@@std@@@std@@@0@AEAV10@@Z
	??$addressof@V?$_String_val@U?$_Simple_types@D@std@@@std@@@std@@YAPEAV?$_String_val@U?$_Simple_types@D@std@@@0@AEAV10@@Z
	??$addressof@V?$basic_ostream@DU?$char_traits@D@std@@@std@@@std@@YAPEAV?$basic_ostream@DU?$char_traits@D@std@@@0@AEAV10@@Z
	??$addressof@V?$basic_string@DU?$char_traits@D@std@@V?$allocator@D@2@@std@@@std@@YAPEAV?$basic_string@DU?$char_traits@D@std@@V?$allocator@D@2@@0@AEAV10@@Z
	??$addressof@V?$basic_stringbuf@DU?$char_traits@D@std@@V?$allocator@D@2@@std@@@std@@YAPEAV?$basic_stringbuf@DU?$char_traits@D@std@@V?$allocator@D@2@@0@AEAV10@@Z
	??$addressof@V?$vector@UColumnInfo@tablemax@@V?$allocator@UColumnInfo@tablemax@@@std@@@std@@@std@@YAPEAV?$vector@UColumnInfo@tablemax@@V?$allocator@UColumnInfo@tablemax@@@std@@@0@AEAV10@@Z
	??$construct@U?$pair@QEAXUConnectionEntry@tablemax@@@std@@AEBUpiecewise_construct_t@2@V?$tuple@AEBQEAX@2@V?$tuple@$$V@2@@?$_Default_allocator_traits@V?$allocator@U?$_List_node@U?$pair@QEAXUConnectionEntry@tablemax@@@std@@PEAX@std@@@std@@@std@@SAXAEAV?$allocator@U?$_List_node@U?$pair@QEAXUConnectionEntry@tablemax@@@std@@PEAX@std@@@1@QEAU?$pair@QEAXUConnectionEntry@tablemax@@@1@AEBUpiecewise_construct_t@1@$$QEAV?$tuple@AEBQEAX@1@$$QEAV?$tuple@$$V@1@@Z
	??$construct@ULoadedPlugin@tablemax@@U12@@?$_Default_allocator_traits@V?$allocator@ULoadedPlugin@tablemax@@@std@@@std@@SAXAEAV?$allocator@ULoadedPlugin@tablemax@@@1@QEAULoadedPlugin@tablemax@@$$QEAU34@@Z
	??$destroy@U?$pair@QEAXUConnectionEntry@tablemax@@@std@@@?$_Default_allocator_traits@V?$allocator@U?$_List_node@U?$pair@QEAXUConnectionEntry@tablemax@@@std@@PEAX@std@@@std@@@std@@SAXAEAV?$allocator@U?$_List_node@U?$pair@QEAXUConnectionEntry@tablemax@@@std@@PEAX@std@@@1@QEAU?$pair@QEAXUConnectionEntry@tablemax@@@1@@Z
	??$destroy@U?$pair@V?$basic_string@DU?$char_traits@D@std@@V?$allocator@D@2@@std@@V12@@std@@@?$_Default_allocator_traits@V?$allocator@U?$pair@V?$basic_string@DU?$char_traits@D@std@@V?$allocator@D@2@@std@@V12@@std@@@std@@@std@@SAXAEAV?$allocator@U?$pair@V?$basic_string@DU?$char_traits@D@std@@V?$allocator@D@2@@std@@V12@@std@@@1@QEAU?$pair@V?$basic_string@DU?$char_traits@D@std@@V?$allocator@D@2@@std@@V12@@1@@Z
	??$destroy@UColumnInfo@tablemax@@@?$_Default_allocator_traits@V?$allocator@UColumnInfo@tablemax@@@std@@@std@@SAXAEAV?$allocator@UColumnInfo@tablemax@@@1@QEAUColumnInfo@tablemax@@@Z
	??$destroy@ULoadedPlugin@tablemax@@@?$_Default_allocator_traits@V?$allocator@ULoadedPlugin@tablemax@@@std@@@std@@SAXAEAV?$allocator@ULoadedPlugin@tablemax@@@1@QEAULoadedPlugin@tablemax@@@Z
	??$destroy@UPluginEntry@tablemax@@@?$_Default_allocator_traits@V?$allocator@UPluginEntry@tablemax@@@std@@@std@@SAXAEAV?$allocator@UPluginEntry@tablemax@@@1@QEAUPluginEntry@tablemax@@@Z
	??$destroy@V?$basic_string@DU?$char_traits@D@std@@V?$allocator@D@2@@std@@@?$_Default_allocator_traits@V?$allocator@V?$basic_string@DU?$char_traits@D@std@@V?$allocator@D@2@@std@@@std@@@std@@SAXAEAV?$allocator@V?$basic_string@DU?$char_traits@D@std@@V?$allocator@D@2@@std@@@1@QEAV?$basic_string@DU?$char_traits@D@std@@V?$allocator@D@2@@1@@Z
	??$destroy@V?$vector@U?$pair@V?$basic_string@DU?$char_traits@D@std@@V?$allocator@D@2@@std@@V12@@std@@V?$allocator@U?$pair@V?$basic_string@DU?$char_traits@D@std@@V?$allocator@D@2@@std@@V12@@std@@@2@@std@@@?$_Default_allocator_traits@V?$allocator@V?$vector@U?$pair@V?$basic_string@DU?$char_traits@D@std@@V?$allocator@D@2@@std@@V12@@std@@V?$allocator@U?$pair@V?$basic_string@DU?$char_traits@D@std@@V?$allocator@D@2@@std@@V12@@std@@@2@@std@@@std@@@std@@SAXAEAV?$allocator@V?$vector@U?$pair@V?$basic_string@DU?$char_traits@D@std@@V?$allocator@D@2@@std@@V12@@std@@V?$allocator@U?$pair@V?$basic_string@DU?$char_traits@D@std@@V?$allocator@D@2@@std@@V12@@std@@@2@@std@@@1@QEAV?$vector@U?$pair@V?$basic_string@DU?$char_traits@D@std@@V?$allocator@D@2@@std@@V12@@std@@V?$allocator@U?$pair@V?$basic_string@DU?$char_traits@D@std@@V?$allocator@D@2@@std@@V12@@std@@@2@@1@@Z
	??$duration_cast@V?$duration@_JU?$ratio@$00$00@std@@@chrono@std@@_JU?$ratio@$00$0JIJGIA@@3@$0A@@chrono@std@@YA?AV?$duration@_JU?$ratio@$00$00@std@@@01@AEBV?$duration@_JU?$ratio@$00$0JIJGIA@@std@@@01@@Z
	??$endl@DU?$char_traits@D@std@@@std@@YAAEAV?$basic_ostream@DU?$char_traits@D@std@@@0@AEAV10@@Z
	??$erase@V?$_List_iterator@V?$_List_val@U?$_List_simple_types@U?$pair@QEAXUConnectionEntry@tablemax@@@std@@@std@@@std@@@std@@$0A@@?$_Hash@V?$_Umap_traits@PEAXUConnectionEntry@tablemax@@V?$_Uhash_compare@PEAXU?$hash@PEAX@std@@U?$equal_to@PEAX@2@@std@@V?$allocator@U?$pair@QEAXUConnectionEntry@tablemax@@@std@@@4@$0A@@std@@@std@@QEAA?AV?$_List_iterator@V?$_List_val@U?$_List_simple_types@U?$pair@QEAXUConnectionEntry@tablemax@@@std@@@std@@@std@@@1@V21@@Z
	??$exchange@PEAU?$_List_node@U?$pair@QEAXUConnectionEntry@tablemax@@@std@@PEAX@std@@$$T@std@@YAPEAU?$_List_node@U?$pair@QEAXUConnectionEntry@tablemax@@@std@@PEAX@0@AEAPEAU10@$$QEA$$T@Z
	??$exchange@PEAULoadedPlugin@tablemax@@$$T@std@@YAPEAULoadedPlugin@tablemax@@AEAPEAU12@$$QEA$$T@Z
	??$exchange@PEAVIResultStream@tablemax@@$$T@std@@YAPEAVIResultStream@tablemax@@AEAPEAV12@$$QEA$$T@Z
	??$exchange@PEAVIResultStream@tablemax@@AEAPEAV12@@std@@YAPEAVIResultStream@tablemax@@AEAPEAV12@0@Z
	??$exchange@PEAV_Facet_base@std@@$$T@std@@YAPEAV_Facet_base@0@AEAPEAV10@$$QEA$$T@Z
	??$fill@PEAV?$_List_unchecked_iterator@V?$_List_val@U?$_List_simple_types@U?$pair@QEAXUConnectionEntry@tablemax@@@std@@@std@@@std@@@std@@V12@@std@@YAXQEAV?$_List_unchecked_iterator@V?$_List_val@U?$_List_simple_types@U?$pair@QEAXUConnectionEntry@tablemax@@@std@@@std@@@std@@@0@0AEBV10@@Z
	??$forward@AEAPEAD@std@@YAAEAPEADAEAPEAD@Z
	??$forward@AEAPEAU?$_List_node@U?$pair@QEAXUConnectionEntry@tablemax@@@std@@PEAX@std@@@std@@YAAEAPEAU?$_List_node@U?$pair@QEAXUConnectionEntry@tablemax@@@std@@PEAX@0@AEAPEAU10@@Z
	??$forward@AEAPEAV_Facet_base@std@@@std@@YAAEAPEAV_Facet_base@0@AEAPEAV10@@Z
	??$forward@AEBQEAD@std@@YAAEBQEADAEBQEAD@Z
	??$forward@AEBQEAU?$_List_node@U?$pair@QEAXUConnectionEntry@tablemax@@@std@@PEAX@std@@@std@@YAAEBQEAU?$_List_node@U?$pair@QEAXUConnectionEntry@tablemax@@@std@@PEAX@0@AEBQEAU10@@Z
	??$forward@AEBQEAX@std@@YAAEBQEAXAEBQEAX@Z
	??$forward@AEBUpiecewise_construct_t@std@@@std@@YAAEBUpiecewise_construct_t@0@AEBU10@@Z
	??$forward@AEBV?$_List_unchecked_iterator@V?$_List_val@U?$_List_simple_types@U?$pair@QEAXUConnectionEntry@tablemax@@@std@@@std@@@std@@@std@@@std@@YAAEBV?$_List_unchecked_iterator@V?$_List_val@U?$_List_simple_types@U?$pair@QEAXUConnectionEntry@tablemax@@@std@@@std@@@std@@@0@AEBV10@@Z
	??$forward@AEBV?$allocator@D@std@@@std@@YAAEBV?$allocator@D@0@AEBV10@@Z
	??$forward@AEBV?$allocator@U?$pair@QEAXUConnectionEntry@tablemax@@@std@@@std@@@std@@YAAEBV?$allocator@U?$pair@QEAXUConnectionEntry@tablemax@@@std@@@0@AEBV10@@Z
	??$forward@M@std@@YA$$QEAMAEAM@Z
	??$forward@PEAU?$_List_node@U?$pair@QEAXUConnectionEntry@tablemax@@@std@@PEAX@std@@@std@@YA$$QEAPEAU?$_List_node@U?$pair@QEAXUConnectionEntry@tablemax@@@std@@PEAX@0@AEAPEAU10@@Z
	??$forward@PEAULoadedPlugin@tablemax@@@std@@YA$$QEAPEAULoadedPlugin@tablemax@@AEAPEAU12@@Z
	??$forward@U?$default_delete@VIResultStream@tablemax@@@std@@@std@@YA$$QEAU?$default_delete@VIResultStream@tablemax@@@0@AEAU10@@Z
	??$forward@ULoadedPlugin@tablemax@@@std@@YA$$QEAULoadedPlugin@tablemax@@AEAU12@@Z
	??$forward@U_Zero_then_variadic_args_t@std@@@std@@YA$$QEAU_Zero_then_variadic_args_t@0@AEAU10@@Z
	??$forward@V?$allocator@D@std@@@std@@YA$$QEAV?$allocator@D@0@AEAV10@@Z
	??$forward@V?$allocator@ULoadedPlugin@tablemax@@@std@@@std@@YA$$QEAV?$allocator@ULoadedPlugin@tablemax@@@0@AEAV10@@Z
	??$forward@V?$tuple@$$V@std@@@std@@YA$$QEAV?$tuple@$$V@0@AEAV10@@Z
	??$forward@V?$tuple@AEBQEAX@std@@@std@@YA$$QEAV?$tuple@AEBQEAX@0@AEAV10@@Z
	??$forward@_N@std@@YA$$QEA_NAEA_N@Z
	??$forward_as_tuple@$$V@std@@YA?AV?$tuple@$$V@0@XZ
	??$forward_as_tuple@AEBQEAX@std@@YA?AV?$tuple@AEBQEAX@0@AEBQEAX@Z
	??$get@$00QEAXUConnectionEntry@tablemax@@@std@@YAAEAUConnectionEntry@tablemax@@AEAU?$pair@QEAXUConnectionEntry@tablemax@@@0@@Z
	??$get@$0A@QEAXUConnectionEntry@tablemax@@@std@@YAAEBQEAXAEAU?$pair@QEAXUConnectionEntry@tablemax@@@0@@Z
	??$max@PEAD@std@@YAAEBQEADAEBQEAD0@Z
	??$max@_K@std@@YAAEB_KAEB_K0@Z
	??$min@_K@std@@YAAEB_KAEB_K0@Z
	??$move@AEAULoadedPlugin@tablemax@@@std@@YA$$QEAULoadedPlugin@tablemax@@AEAU12@@Z
	??$move@AEAV?$allocator@D@std@@@std@@YA$$QEAV?$allocator@D@0@AEAV10@@Z
	??$move@AEAV?$allocator@UColumnInfo@tablemax@@@std@@@std@@YA$$QEAV?$allocator@UColumnInfo@tablemax@@@0@AEAV10@@Z
	??$move@AEAV?$allocator@ULoadedPlugin@tablemax@@@std@@@std@@YA$$QEAV?$allocator@ULoadedPlugin@tablemax@@@0@AEAV10@@Z
	??$move@AEAV?$basic_string@DU?$char_traits@D@std@@V?$allocator@D@2@@std@@@std@@YA$$QEAV?$basic_string@DU?$char_traits@D@std@@V?$allocator@D@2@@0@AEAV10@@Z
	??$move@AEAV?$tuple@AEBQEAX@std@@@std@@YA$$QEAV?$tuple@AEBQEAX@0@AEAV10@@Z
	??$move@AEAV?$unique_ptr@VIResultStream@tablemax@@U?$default_delete@VIResultStream@tablemax@@@std@@@std@@@std@@YA$$QEAV?$unique_ptr@VIResultStream@tablemax@@U?$default_delete@VIResultStream@tablemax@@@std@@@0@AEAV10@@Z
	??$put_time@D@std@@YA?AU?$_Timeobj@DPEBUtm@@@0@PEBUtm@@PEBD@Z
	??$uninitialized_fill@PEAV?$_List_unchecked_iterator@V?$_List_val@U?$_List_simple_types@U?$pair@QEAXUConnectionEntry@tablemax@@@std@@@std@@@std@@@std@@V12@@std@@YAXQEAV?$_List_unchecked_iterator@V?$_List_val@U?$_List_simple_types@U?$pair@QEAXUConnectionEntry@tablemax@@@std@@@std@@@std@@@0@0AEBV10@@Z
	??$use_facet@V?$time_put@DV?$ostreambuf_iterator@DU?$char_traits@D@std@@@std@@@std@@@std@@YAAEBV?$time_put@DV?$ostreambuf_iterator@DU?$char_traits@D@std@@@std@@@0@AEBVlocale@0@@Z
	??0?$_Alloc_construct_ptr@V?$allocator@U?$_List_node@U?$pair@QEAXUConnectionEntry@tablemax@@@std@@PEAX@std@@@std@@@std@@QEAA@AEAV?$allocator@U?$_List_node@U?$pair@QEAXUConnectionEntry@tablemax@@@std@@PEAX@std@@@1@@Z
	??0?$_Hash@V?$_Umap_traits@PEAXUConnectionEntry@tablemax@@V?$_Uhash_compare@PEAXU?$hash@PEAX@std@@U?$equal_to@PEAX@2@@std@@V?$allocator@U?$pair@QEAXUConnectionEntry@tablemax@@@std@@@4@$0A@@std@@@std@@IEAA@AEBV?$_Uhash_compare@PEAXU?$hash@PEAX@std@@U?$equal_to@PEAX@2@@1@AEBV?$allocator@U?$pair@QEAXUConnectionEntry@tablemax@@@std@@@1@@Z
	??0?$_List_const_iterator@V?$_List_val@U?$_List_simple_types@U?$pair@QEAXUConnectionEntry@tablemax@@@std@@@std@@@std@@@std@@QEAA@PEAU?$_List_node@U?$pair@QEAXUConnectionEntry@tablemax@@@std@@PEAX@1@PEBV?$_List_val@U?$_List_simple_types@U?$pair@QEAXUConnectionEntry@tablemax@@@std@@@std@@@1@@Z
	??0?$_List_iterator@V?$_List_val@U?$_List_simple_types@U?$pair@QEAXUConnectionEntry@tablemax@@@std@@@std@@@std@@@std@@QEAA@PEAU?$_List_node@U?$pair@QEAXUConnectionEntry@tablemax@@@std@@PEAX@1@PEBV?$_List_val@U?$_List_simple_types@U?$pair@QEAXUConnectionEntry@tablemax@@@std@@@std@@@1@@Z
	??0?$_List_unchecked_const_iterator@V?$_List_val@U?$_List_simple_types@U?$pair@QEAXUConnectionEntry@tablemax@@@std@@@std@@@std@@U_Iterator_base0@2@@std@@QEAA@PEAU?$_List_node@U?$pair@QEAXUConnectionEntry@tablemax@@@std@@PEAX@1@PEBV?$_List_val@U?$_List_simple_types@U?$pair@QEAXUConnectionEntry@tablemax@@@std@@@std@@@1@@Z
	??0?$_List_unchecked_iterator@V?$_List_val@U?$_List_simple_types@U?$pair@QEAXUConnectionEntry@tablemax@@@std@@@std@@@std@@@std@@QEAA@PEAU?$_List_node@U?$pair@QEAXUConnectionEntry@tablemax@@@std@@PEAX@1@PEBV?$_List_val@U?$_List_simple_types@U?$pair@QEAXUConnectionEntry@tablemax@@@std@@@std@@@1@@Z
	??0?$_List_val@U?$_List_simple_types@U?$pair@QEAXUConnectionEntry@tablemax@@@std@@@std@@@std@@QEAA@XZ
	??0?$_String_val@U?$_Simple_types@D@std@@@std@@QEAA@XZ
	??0?$_Timeobj@DPEBUtm@@@std@@QEAA@PEBUtm@@PEBD@Z
	??0?$_Uhash_compare@PEAXU?$hash@PEAX@std@@U?$equal_to@PEAX@2@@std@@QEAA@XZ
	??0?$_Umap_traits@PEAXUConnectionEntry@tablemax@@V?$_Uhash_compare@PEAXU?$hash@PEAX@std@@U?$equal_to@PEAX@2@@std@@V?$allocator@U?$pair@QEAXUConnectionEntry@tablemax@@@std@@@4@$0A@@std@@QEAA@AEBV?$_Uhash_compare@PEAXU?$hash@PEAX@std@@U?$equal_to@PEAX@2@@1@@Z
	??0?$_Uninitialized_backout@PEAV?$_List_unchecked_iterator@V?$_List_val@U?$_List_simple_types@U?$pair@QEAXUConnectionEntry@tablemax@@@std@@@std@@@std@@@std@@@std@@QEAA@PEAV?$_List_unchecked_iterator@V?$_List_val@U?$_List_simple_types@U?$pair@QEAXUConnectionEntry@tablemax@@@std@@@std@@@std@@@1@@Z
	??0?$_Uninitialized_backout_al@V?$allocator@ULoadedPlugin@tablemax@@@std@@@std@@QEAA@PEAULoadedPlugin@tablemax@@AEAV?$allocator@ULoadedPlugin@tablemax@@@1@@Z
	??0?$_Vector_val@U?$_Simple_types@UColumnInfo@tablemax@@@std@@@std@@QEAA@XZ
	??0?$_Vector_val@U?$_Simple_types@ULoadedPlugin@tablemax@@@std@@@std@@QEAA@PEAULoadedPlugin@tablemax@@00@Z
	??0?$_Vector_val@U?$_Simple_types@ULoadedPlugin@tablemax@@@std@@@std@@QEAA@XZ
	??0?$_Vector_val@U?$_Simple_types@UPluginEntry@tablemax@@@std@@@std@@QEAA@XZ
	??0?$_Vector_val@U?$_Simple_types@V?$_List_unchecked_iterator@V?$_List_val@U?$_List_simple_types@U?$pair@QEAXUConnectionEntry@tablemax@@@std@@@std@@@std@@@std@@@std@@@std@@QEAA@XZ
	??0?$allocator@D@std@@QEAA@XZ
	??0?$allocator@U?$pair@QEAXUConnectionEntry@tablemax@@@std@@@std@@QEAA@XZ
	??0?$allocator@UColumnInfo@tablemax@@@std@@QEAA@XZ
	??0?$allocator@ULoadedPlugin@tablemax@@@std@@QEAA@XZ
	??0?$allocator@UPluginEntry@tablemax@@@std@@QEAA@XZ
	??0?$basic_ostringstream@DU?$char_traits@D@std@@V?$allocator@D@2@@std@@QEAA@XZ
	??0?$basic_string@DU?$char_traits@D@std@@V?$allocator@D@2@@std@@QEAA@$$QEAV01@@Z
	??0?$basic_string@DU?$char_traits@D@std@@V?$allocator@D@2@@std@@QEAA@AEBV?$allocator@D@1@@Z
	??0?$basic_string@DU?$char_traits@D@std@@V?$allocator@D@2@@std@@QEAA@QEBD@Z
	??0?$basic_string@DU?$char_traits@D@std@@V?$allocator@D@2@@std@@QEAA@U_String_constructor_concat_tag@1@AEBV01@QEBD_K23@Z
	??0?$basic_string@DU?$char_traits@D@std@@V?$allocator@D@2@@std@@QEAA@XZ
	??0?$basic_stringbuf@DU?$char_traits@D@std@@V?$allocator@D@2@@std@@QEAA@H@Z
	??0?$fpos@U_Mbstatet@@@std@@QEAA@_J@Z
	??0?$list@U?$pair@QEAXUConnectionEntry@tablemax@@@std@@V?$allocator@U?$pair@QEAXUConnectionEntry@tablemax@@@std@@@2@@std@@QEAA@AEBV?$allocator@U?$pair@QEAXUConnectionEntry@tablemax@@@std@@@1@@Z
	??0?$lock_guard@Vmutex@std@@@std@@QEAA@AEAVmutex@1@@Z
	??0?$ostreambuf_iterator@DU?$char_traits@D@std@@@std@@QEAA@PEAV?$basic_streambuf@DU?$char_traits@D@std@@@1@@Z
	??0?$time_point@Usystem_clock@chrono@std@@V?$duration@_JU?$ratio@$00$0JIJGIA@@std@@@23@@chrono@std@@QEAA@AEBV?$duration@_JU?$ratio@$00$0JIJGIA@@std@@@12@@Z
	??0?$tuple@$$V@std@@QEAA@AEBV01@@Z
	??0?$tuple@AEBQEAX@std@@QEAA@$$QEAV01@@Z
	??0?$unordered_map@PEAXUConnectionEntry@tablemax@@U?$hash@PEAX@std@@U?$equal_to@PEAX@4@V?$allocator@U?$pair@QEAXUConnectionEntry@tablemax@@@std@@@4@@std@@QEAA@XZ
	??0?$vector@UColumnInfo@tablemax@@V?$allocator@UColumnInfo@tablemax@@@std@@@std@@QEAA@XZ
	??0?$vector@ULoadedPlugin@tablemax@@V?$allocator@ULoadedPlugin@tablemax@@@std@@@std@@QEAA@$$QEAV01@@Z
	??0?$vector@ULoadedPlugin@tablemax@@V?$allocator@ULoadedPlugin@tablemax@@@std@@@std@@QEAA@XZ
	??0?$vector@UPluginEntry@tablemax@@V?$allocator@UPluginEntry@tablemax@@@std@@@std@@QEAA@XZ
	??0ConnectionEntry@tablemax@@QEAA@XZ
	??0Engine@tablemax@@QEAA@XZ
	??0LoadedPlugin@tablemax@@QEAA@$$QEAU01@@Z
	??0LoadedPlugin@tablemax@@QEAA@XZ
	??0ResultWrapper@tablemax@@QEAA@XZ
	??0_Bxty@?$_String_val@U?$_Simple_types@D@std@@@std@@QEAA@XZ
	??0_Clear_guard@?$_Hash@V?$_Umap_traits@PEAXUConnectionEntry@tablemax@@V?$_Uhash_compare@PEAXU?$hash@PEAX@std@@U?$equal_to@PEAX@2@@std@@V?$allocator@U?$pair@QEAXUConnectionEntry@tablemax@@@std@@@4@$0A@@std@@@std@@QEAA@QEAV12@@Z
	??0_Fake_proxy_ptr_impl@std@@QEAA@AEBU_Fake_allocator@1@AEBU_Container_base0@1@@Z
	??0_Mutex_base@std@@QEAA@H@Z
	??0_Range_eraser@?$_Hash@V?$_Umap_traits@PEAXUConnectionEntry@tablemax@@V?$_Uhash_compare@PEAXU?$hash@PEAX@std@@U?$equal_to@PEAX@2@@std@@V?$allocator@U?$pair@QEAXUConnectionEntry@tablemax@@@std@@@4@$0A@@std@@@std@@QEAA@AEAV?$list@U?$pair@QEAXUConnectionEntry@tablemax@@@std@@V?$allocator@U?$pair@QEAXUConnectionEntry@tablemax@@@std@@@2@@2@QEAU?$_List_node@U?$pair@QEAXUConnectionEntry@tablemax@@@std@@PEAX@2@@Z
	??0_Sentry_base@?$basic_ostream@DU?$char_traits@D@std@@@std@@QEAA@AEAV12@@Z
	??0bad_alloc@std@@AEAA@QEBD@Z
	??0bad_alloc@std@@QEAA@AEBV01@@Z
	??0bad_array_new_length@std@@QEAA@AEBV01@@Z
	??0bad_array_new_length@std@@QEAA@XZ
	??0bad_cast@std@@QEAA@AEBV01@@Z
	??0bad_cast@std@@QEAA@XZ
	??0exception@std@@QEAA@AEBV01@@Z
	??0exception@std@@QEAA@QEBDH@Z
	??0mutex@std@@QEAA@XZ
	??0sentry@?$basic_ostream@DU?$char_traits@D@std@@@std@@QEAA@AEAV12@@Z
	??1?$_Alloc_construct_ptr@V?$allocator@U?$_List_node@U?$pair@QEAXUConnectionEntry@tablemax@@@std@@PEAX@std@@@std@@@std@@QEAA@XZ
	??1?$_Compressed_pair@V?$allocator@D@std@@V?$_String_val@U?$_Simple_types@D@std@@@2@$00@std@@QEAA@XZ
	??1?$_Hash@V?$_Umap_traits@PEAXUConnectionEntry@tablemax@@V?$_Uhash_compare@PEAXU?$hash@PEAX@std@@U?$equal_to@PEAX@2@@std@@V?$allocator@U?$pair@QEAXUConnectionEntry@tablemax@@@std@@@4@$0A@@std@@@std@@QEAA@XZ
	??1?$_Hash_vec@V?$allocator@V?$_List_unchecked_iterator@V?$_List_val@U?$_List_simple_types@U?$pair@QEAXUConnectionEntry@tablemax@@@std@@@std@@@std@@@std@@@std@@@std@@QEAA@XZ
	??1?$_List_node_emplace_op2@V?$allocator@U?$_List_node@U?$pair@QEAXUConnectionEntry@tablemax@@@std@@PEAX@std@@@std@@@std@@QEAA@XZ
	??1?$_String_val@U?$_Simple_types@D@std@@@std@@QEAA@XZ
	??1?$_Uninitialized_backout@PEAV?$_List_unchecked_iterator@V?$_List_val@U?$_List_simple_types@U?$pair@QEAXUConnectionEntry@tablemax@@@std@@@std@@@std@@@std@@@std@@QEAA@XZ
	??1?$_Uninitialized_backout_al@V?$allocator@ULoadedPlugin@tablemax@@@std@@@std@@QEAA@XZ
	??1?$basic_ostringstream@DU?$char_traits@D@std@@V?$allocator@D@2@@std@@UEAA@XZ
	??1?$basic_string@DU?$char_traits@D@std@@V?$allocator@D@2@@std@@QEAA@XZ
	??1?$basic_stringbuf@DU?$char_traits@D@std@@V?$allocator@D@2@@std@@UEAA@XZ
	??1?$list@U?$pair@QEAXUConnectionEntry@tablemax@@@std@@V?$allocator@U?$pair@QEAXUConnectionEntry@tablemax@@@std@@@2@@std@@QEAA@XZ
	??1?$lock_guard@Vmutex@std@@@std@@QEAA@XZ
	??1?$pair@QEAXUConnectionEntry@tablemax@@@std@@QEAA@XZ
	??1?$pair@V?$basic_string@DU?$char_traits@D@std@@V?$allocator@D@2@@std@@V12@@std@@QEAA@XZ
	??1?$unique_ptr@VIResultStream@tablemax@@U?$default_delete@VIResultStream@tablemax@@@std@@@std@@QEAA@XZ
	??1?$unique_ptr@V_Facet_base@std@@U?$default_delete@V_Facet_base@std@@@2@@std@@QEAA@XZ
	??1?$unordered_map@PEAXUConnectionEntry@tablemax@@U?$hash@PEAX@std@@U?$equal_to@PEAX@4@V?$allocator@U?$pair@QEAXUConnectionEntry@tablemax@@@std@@@4@@std@@QEAA@XZ
	??1?$vector@U?$pair@V?$basic_string@DU?$char_traits@D@std@@V?$allocator@D@2@@std@@V12@@std@@V?$allocator@U?$pair@V?$basic_string@DU?$char_traits@D@std@@V?$allocator@D@2@@std@@V12@@std@@@2@@std@@QEAA@XZ
	??1?$vector@UColumnInfo@tablemax@@V?$allocator@UColumnInfo@tablemax@@@std@@@std@@QEAA@XZ
	??1?$vector@ULoadedPlugin@tablemax@@V?$allocator@ULoadedPlugin@tablemax@@@std@@@std@@QEAA@XZ
	??1?$vector@UPluginEntry@tablemax@@V?$allocator@UPluginEntry@tablemax@@@std@@@std@@QEAA@XZ
	??1?$vector@V?$basic_string@DU?$char_traits@D@std@@V?$allocator@D@2@@std@@V?$allocator@V?$basic_string@DU?$char_traits@D@std@@V?$allocator@D@2@@std@@@2@@std@@QEAA@XZ
	??1?$vector@V?$vector@U?$pair@V?$basic_string@DU?$char_traits@D@std@@V?$allocator@D@2@@std@@V12@@std@@V?$allocator@U?$pair@V?$basic_string@DU?$char_traits@D@std@@V?$allocator@D@2@@std@@V12@@std@@@2@@std@@V?$allocator@V?$vector@U?$pair@V?$basic_string@DU?$char_traits@D@std@@V?$allocator@D@2@@std@@V12@@std@@V?$allocator@U?$pair@V?$basic_string@DU?$char_traits@D@std@@V?$allocator@D@2@@std@@V12@@std@@@2@@std@@@2@@std@@QEAA@XZ
	??1ColumnInfo@tablemax@@QEAA@XZ
	??1ConnectionEntry@tablemax@@QEAA@XZ
	??1Engine@tablemax@@QEAA@XZ
	??1LoadedPlugin@tablemax@@QEAA@XZ
	??1PluginEntry@tablemax@@QEAA@XZ
	??1QueryMeta@tablemax@@QEAA@XZ
	??1ResultWrapper@tablemax@@QEAA@XZ
	??1_Bxty@?$_String_val@U?$_Simple_types@D@std@@@std@@QEAA@XZ
	??1_Clear_guard@?$_Hash@V?$_Umap_traits@PEAXUConnectionEntry@tablemax@@V?$_Uhash_compare@PEAXU?$hash@PEAX@std@@U?$equal_to@PEAX@2@@std@@V?$allocator@U?$pair@QEAXUConnectionEntry@tablemax@@@std@@@4@$0A@@std@@@std@@QEAA@XZ
	??1_Range_eraser@?$_Hash@V?$_Umap_traits@PEAXUConnectionEntry@tablemax@@V?$_Uhash_compare@PEAXU?$hash@PEAX@std@@U?$equal_to@PEAX@2@@std@@V?$allocator@U?$pair@QEAXUConnectionEntry@tablemax@@@std@@@4@$0A@@std@@@std@@QEAA@XZ
	??1_Reallocation_guard@?$vector@ULoadedPlugin@tablemax@@V?$allocator@ULoadedPlugin@tablemax@@@std@@@std@@QEAA@XZ
	??1_Sentry_base@?$basic_ostream@DU?$char_traits@D@std@@@std@@QEAA@XZ
	??1bad_alloc@std@@UEAA@XZ
	??1bad_array_new_length@std@@UEAA@XZ
	??1bad_cast@std@@UEAA@XZ
	??1exception@std@@UEAA@XZ
	??1locale@std@@QEAA@XZ
	??1sentry@?$basic_ostream@DU?$char_traits@D@std@@@std@@QEAA@XZ
	??2@YAPEAX_KPEAX@Z
	??4?$basic_string@DU?$char_traits@D@std@@V?$allocator@D@2@@std@@QEAAAEAV01@$$QEAV01@@Z
	??4?$basic_string@DU?$char_traits@D@std@@V?$allocator@D@2@@std@@QEAAAEAV01@AEBV01@@Z
	??4?$basic_string@DU?$char_traits@D@std@@V?$allocator@D@2@@std@@QEAAAEAV01@QEBD@Z
	??4?$vector@UColumnInfo@tablemax@@V?$allocator@UColumnInfo@tablemax@@@std@@@std@@QEAAAEAV01@$$QEAV01@@Z
	??4ConnectionEntry@tablemax@@QEAAAEAU01@$$QEAU01@@Z
	??8?$_List_const_iterator@V?$_List_val@U?$_List_simple_types@U?$pair@QEAXUConnectionEntry@tablemax@@@std@@@std@@@std@@@std@@QEBA_NAEBV01@@Z
	??8?$_List_unchecked_const_iterator@V?$_List_val@U?$_List_simple_types@U?$pair@QEAXUConnectionEntry@tablemax@@@std@@@std@@@std@@U_Iterator_base0@2@@std@@QEBA_NAEBV01@@Z
	??9?$_List_const_iterator@V?$_List_val@U?$_List_simple_types@U?$pair@QEAXUConnectionEntry@tablemax@@@std@@@std@@@std@@@std@@QEBA_NAEBV01@@Z
	??9?$_List_unchecked_const_iterator@V?$_List_val@U?$_List_simple_types@U?$pair@QEAXUConnectionEntry@tablemax@@@std@@@std@@@std@@U_Iterator_base0@2@@std@@QEBA_NAEBV01@@Z
	??A?$unordered_map@PEAXUConnectionEntry@tablemax@@U?$hash@PEAX@std@@U?$equal_to@PEAX@4@V?$allocator@U?$pair@QEAXUConnectionEntry@tablemax@@@std@@@4@@std@@QEAAAEAUConnectionEntry@tablemax@@AEBQEAX@Z
	??A?$vector@U?$pair@V?$basic_string@DU?$char_traits@D@std@@V?$allocator@D@2@@std@@V12@@std@@V?$allocator@U?$pair@V?$basic_string@DU?$char_traits@D@std@@V?$allocator@D@2@@std@@V12@@std@@@2@@std@@QEBAAEBU?$pair@V?$basic_string@DU?$char_traits@D@std@@V?$allocator@D@2@@std@@V12@@1@_K@Z
	??A?$vector@UColumnInfo@tablemax@@V?$allocator@UColumnInfo@tablemax@@@std@@@std@@QEAAAEAUColumnInfo@tablemax@@_K@Z
	??A?$vector@UPluginEntry@tablemax@@V?$allocator@UPluginEntry@tablemax@@@std@@@std@@QEAAAEAUPluginEntry@tablemax@@_K@Z
	??A?$vector@V?$basic_string@DU?$char_traits@D@std@@V?$allocator@D@2@@std@@V?$allocator@V?$basic_string@DU?$char_traits@D@std@@V?$allocator@D@2@@std@@@2@@std@@QEBAAEBV?$basic_string@DU?$char_traits@D@std@@V?$allocator@D@2@@1@_K@Z
	??A?$vector@V?$vector@U?$pair@V?$basic_string@DU?$char_traits@D@std@@V?$allocator@D@2@@std@@V12@@std@@V?$allocator@U?$pair@V?$basic_string@DU?$char_traits@D@std@@V?$allocator@D@2@@std@@V12@@std@@@2@@std@@V?$allocator@V?$vector@U?$pair@V?$basic_string@DU?$char_traits@D@std@@V?$allocator@D@2@@std@@V12@@std@@V?$allocator@U?$pair@V?$basic_string@DU?$char_traits@D@std@@V?$allocator@D@2@@std@@V12@@std@@@2@@std@@@2@@std@@QEBAAEBV?$vector@U?$pair@V?$basic_string@DU?$char_traits@D@std@@V?$allocator@D@2@@std@@V12@@std@@V?$allocator@U?$pair@V?$basic_string@DU?$char_traits@D@std@@V?$allocator@D@2@@std@@V12@@std@@@2@@1@_K@Z
	??B?$fpos@U_Mbstatet@@@std@@QEBA_JXZ
	??B?$unique_ptr@VIResultStream@tablemax@@U?$default_delete@VIResultStream@tablemax@@@std@@@std@@QEBA_NXZ
	??Bsentry@?$basic_ostream@DU?$char_traits@D@std@@@std@@QEBA_NXZ
	??C?$_List_iterator@V?$_List_val@U?$_List_simple_types@U?$pair@QEAXUConnectionEntry@tablemax@@@std@@@std@@@std@@@std@@QEBAPEAU?$pair@QEAXUConnectionEntry@tablemax@@@1@XZ
	??C?$unique_ptr@VIResultStream@tablemax@@U?$default_delete@VIResultStream@tablemax@@@std@@@std@@QEBAPEAVIResultStream@tablemax@@XZ
	??D?$_List_const_iterator@V?$_List_val@U?$_List_simple_types@U?$pair@QEAXUConnectionEntry@tablemax@@@std@@@std@@@std@@@std@@QEBAAEBU?$pair@QEAXUConnectionEntry@tablemax@@@1@XZ
	??D?$_List_iterator@V?$_List_val@U?$_List_simple_types@U?$pair@QEAXUConnectionEntry@tablemax@@@std@@@std@@@std@@@std@@QEBAAEAU?$pair@QEAXUConnectionEntry@tablemax@@@1@XZ
	??D?$_List_unchecked_const_iterator@V?$_List_val@U?$_List_simple_types@U?$pair@QEAXUConnectionEntry@tablemax@@@std@@@std@@@std@@U_Iterator_base0@2@@std@@QEBAAEBU?$pair@QEAXUConnectionEntry@tablemax@@@1@XZ
	??D?$_List_unchecked_iterator@V?$_List_val@U?$_List_simple_types@U?$pair@QEAXUConnectionEntry@tablemax@@@std@@@std@@@std@@@std@@QEBAAEAU?$pair@QEAXUConnectionEntry@tablemax@@@1@XZ
	??E?$_List_unchecked_const_iterator@V?$_List_val@U?$_List_simple_types@U?$pair@QEAXUConnectionEntry@tablemax@@@std@@@std@@@std@@U_Iterator_base0@2@@std@@QEAAAEAV01@XZ
	??E?$_List_unchecked_iterator@V?$_List_val@U?$_List_simple_types@U?$pair@QEAXUConnectionEntry@tablemax@@@std@@@std@@@std@@@std@@QEAAAEAV01@XZ
	??F?$_List_unchecked_const_iterator@V?$_List_val@U?$_List_simple_types@U?$pair@QEAXUConnectionEntry@tablemax@@@std@@@std@@@std@@U_Iterator_base0@2@@std@@QEAAAEAV01@XZ
	??R<lambda_6e107f859707de1a71dcca60860853b1>@@SA@QEADQEBD_K12@Z
	??R<lambda_a132b9f505f015b07a26cb4edca31da2>@@SA@QEAD_KQEBD@Z
	??R?$_Conditionally_enabled_hash@PEAX$00@std@@SA_KAEBQEAX@Z
	??R?$default_delete@VIResultStream@tablemax@@@std@@QEBAXPEAVIResultStream@tablemax@@@Z
	??R?$default_delete@V_Facet_base@std@@@std@@QEBAXPEAV_Facet_base@1@@Z
	??R?$equal_to@PEAX@std@@QEBA_NAEBQEAX0@Z
	??_7?$basic_ostringstream@DU?$char_traits@D@std@@V?$allocator@D@2@@std@@6B@
	??_7?$basic_stringbuf@DU?$char_traits@D@std@@V?$allocator@D@2@@std@@6B@
	??_7bad_alloc@std@@6B@
	??_7bad_array_new_length@std@@6B@
	??_7bad_cast@std@@6B@
	??_7exception@std@@6B@
	??_D?$basic_ostringstream@DU?$char_traits@D@std@@V?$allocator@D@2@@std@@QEAAXXZ
	?_Activate_SSO_buffer@?$_String_val@U?$_Simple_types@D@std@@@std@@QEAAXXZ
	?_Adjust_manually_vector_aligned@std@@YAXAEAPEAXAEA_K@Z
	?_Adopt@_Iterator_base0@std@@QEAAXPEBX@Z
	?_Alloc_proxy@_Container_base0@std@@QEAAXAEBU_Fake_allocator@2@@Z
	?_Alloc_sentinel_and_proxy@?$list@U?$pair@QEAXUConnectionEntry@tablemax@@@std@@V?$allocator@U?$pair@QEAXUConnectionEntry@tablemax@@@std@@@2@@std@@AEAAXXZ
	?_Allocate@?$_Alloc_construct_ptr@V?$allocator@U?$_List_node@U?$pair@QEAXUConnectionEntry@tablemax@@@std@@PEAX@std@@@std@@@std@@QEAAXXZ
	?_Allocate@_Default_allocate_traits@std@@SAPEAX_K@Z
	?_Assign_grow@?$_Hash_vec@V?$allocator@V?$_List_unchecked_iterator@V?$_List_val@U?$_List_simple_types@U?$pair@QEAXUConnectionEntry@tablemax@@@std@@@std@@@std@@@std@@@std@@@std@@QEAAX_KV?$_List_unchecked_iterator@V?$_List_val@U?$_List_simple_types@U?$pair@QEAXUConnectionEntry@tablemax@@@std@@@std@@@std@@@2@@Z
	?_Bump_erased@_Range_eraser@?$_Hash@V?$_Umap_traits@PEAXUConnectionEntry@tablemax@@V?$_Uhash_compare@PEAXU?$hash@PEAX@std@@U?$equal_to@PEAX@2@@std@@V?$allocator@U?$pair@QEAXUConnectionEntry@tablemax@@@std@@@4@$0A@@std@@@std@@QEAAXXZ
	?_Calculate_growth@?$basic_string@DU?$char_traits@D@std@@V?$allocator@D@2@@std@@AEBA_K_K@Z
	?_Calculate_growth@?$basic_string@DU?$char_traits@D@std@@V?$allocator@D@2@@std@@CA_K_K00@Z
	?_Calculate_growth@?$vector@ULoadedPlugin@tablemax@@V?$allocator@ULoadedPlugin@tablemax@@@std@@@std@@AEBA_K_K@Z
	?_Ceiling_of_log_2@std@@YAK_K@Z
	?_Change_array@?$vector@ULoadedPlugin@tablemax@@V?$allocator@ULoadedPlugin@tablemax@@@std@@@std@@AEAAXQEAULoadedPlugin@tablemax@@_K1@Z
	?_Check_max_size@?$_Hash@V?$_Umap_traits@PEAXUConnectionEntry@tablemax@@V?$_Uhash_compare@PEAXU?$hash@PEAX@std@@U?$equal_to@PEAX@2@@std@@V?$allocator@U?$pair@QEAXUConnectionEntry@tablemax@@@std@@@4@$0A@@std@@@std@@IEBAXXZ
	?_Check_rehash_required_1@?$_Hash@V?$_Umap_traits@PEAXUConnectionEntry@tablemax@@V?$_Uhash_compare@PEAXU?$hash@PEAX@std@@U?$equal_to@PEAX@2@@std@@V?$allocator@U?$pair@QEAXUConnectionEntry@tablemax@@@std@@@4@$0A@@std@@@std@@IEBA_NXZ
	?_Construct_empty@?$basic_string@DU?$char_traits@D@std@@V?$allocator@D@2@@std@@AEAAXXZ
	?_Deallocate_for_capacity@?$basic_string@DU?$char_traits@D@std@@V?$allocator@D@2@@std@@CAXAEAV?$allocator@D@2@QEAD_K@Z
	?_Desired_grow_bucket_count@?$_Hash@V?$_Umap_traits@PEAXUConnectionEntry@tablemax@@V?$_Uhash_compare@PEAXU?$hash@PEAX@std@@U?$equal_to@PEAX@2@@std@@V?$allocator@U?$pair@QEAXUConnectionEntry@tablemax@@@std@@@4@$0A@@std@@@std@@IEBA_K_K@Z
	?_Do_hash@?$hash@PEAX@std@@SA_KAEBQEAX@Z
	?_Equal@?$basic_string@DU?$char_traits@D@std@@V?$allocator@D@2@@std@@QEBA_NQEBD@Z
	?_Erase_bucket@?$_Hash@V?$_Umap_traits@PEAXUConnectionEntry@tablemax@@V?$_Uhash_compare@PEAXU?$hash@PEAX@std@@U?$equal_to@PEAX@2@@std@@V?$allocator@U?$pair@QEAXUConnectionEntry@tablemax@@@std@@@4@$0A@@std@@@std@@IEAAXPEAU?$_List_node@U?$pair@QEAXUConnectionEntry@tablemax@@@std@@PEAX@2@_K@Z
	?_Floor_of_log_2@std@@YAK_K@Z
	?_Fnv1a_append_bytes@std@@YA_K_KQEBE_K@Z
	?_Forced_rehash@?$_Hash@V?$_Umap_traits@PEAXUConnectionEntry@tablemax@@V?$_Uhash_compare@PEAXU?$hash@PEAX@std@@U?$equal_to@PEAX@2@@std@@V?$allocator@U?$pair@QEAXUConnectionEntry@tablemax@@@std@@@4@$0A@@std@@@std@@IEAAX_K@Z
	?_Get_buffer_view@?$basic_stringbuf@DU?$char_traits@D@std@@V?$allocator@D@2@@std@@QEBA?AU_Buffer_view@12@XZ
	?_Get_first@?$_Compressed_pair@U?$default_delete@VIResultStream@tablemax@@@std@@PEAVIResultStream@tablemax@@$00@std@@QEAAAEAU?$default_delete@VIResultStream@tablemax@@@2@XZ
	?_Get_first@?$_Compressed_pair@U?$default_delete@V_Facet_base@std@@@std@@PEAV_Facet_base@2@$00@std@@QEAAAEAU?$default_delete@V_Facet_base@std@@@2@XZ
	?_Get_first@?$_Compressed_pair@U?$equal_to@PEAX@std@@M$00@std@@QEBAAEBU?$equal_to@PEAX@2@XZ
	?_Get_first@?$_Compressed_pair@U?$hash@PEAX@std@@V?$_Compressed_pair@U?$equal_to@PEAX@std@@M$00@2@$00@std@@QEBAAEBU?$hash@PEAX@2@XZ
	?_Get_first@?$_Compressed_pair@V?$allocator@D@std@@V?$_String_val@U?$_Simple_types@D@std@@@2@$00@std@@QEAAAEAV?$allocator@D@2@XZ
	?_Get_first@?$_Compressed_pair@V?$allocator@D@std@@V?$_String_val@U?$_Simple_types@D@std@@@2@$00@std@@QEBAAEBV?$allocator@D@2@XZ
	?_Get_first@?$_Compressed_pair@V?$allocator@U?$_List_node@U?$pair@QEAXUConnectionEntry@tablemax@@@std@@PEAX@std@@@std@@V?$_List_val@U?$_List_simple_types@U?$pair@QEAXUConnectionEntry@tablemax@@@std@@@std@@@2@$00@std@@QEAAAEAV?$allocator@U?$_List_node@U?$pair@QEAXUConnectionEntry@tablemax@@@std@@PEAX@std@@@2@XZ
	?_Get_first@?$_Compressed_pair@V?$allocator@U?$_List_node@U?$pair@QEAXUConnectionEntry@tablemax@@@std@@PEAX@std@@@std@@V?$_List_val@U?$_List_simple_types@U?$pair@QEAXUConnectionEntry@tablemax@@@std@@@std@@@2@$00@std@@QEBAAEBV?$allocator@U?$_List_node@U?$pair@QEAXUConnectionEntry@tablemax@@@std@@PEAX@std@@@2@XZ
	?_Get_first@?$_Compressed_pair@V?$allocator@U?$pair@V?$basic_string@DU?$char_traits@D@std@@V?$allocator@D@2@@std@@V12@@std@@@std@@V?$_Vector_val@U?$_Simple_types@U?$pair@V?$basic_string@DU?$char_traits@D@std@@V?$allocator@D@2@@std@@V12@@std@@@std@@@2@$00@std@@QEAAAEAV?$allocator@U?$pair@V?$basic_string@DU?$char_traits@D@std@@V?$allocator@D@2@@std@@V12@@std@@@2@XZ
	?_Get_first@?$_Compressed_pair@V?$allocator@UColumnInfo@tablemax@@@std@@V?$_Vector_val@U?$_Simple_types@UColumnInfo@tablemax@@@std@@@2@$00@std@@QEAAAEAV?$allocator@UColumnInfo@tablemax@@@2@XZ
	?_Get_first@?$_Compressed_pair@V?$allocator@ULoadedPlugin@tablemax@@@std@@V?$_Vector_val@U?$_Simple_types@ULoadedPlugin@tablemax@@@std@@@2@$00@std@@QEAAAEAV?$allocator@ULoadedPlugin@tablemax@@@2@XZ
	?_Get_first@?$_Compressed_pair@V?$allocator@ULoadedPlugin@tablemax@@@std@@V?$_Vector_val@U?$_Simple_types@ULoadedPlugin@tablemax@@@std@@@2@$00@std@@QEBAAEBV?$allocator@ULoadedPlugin@tablemax@@@2@XZ
	?_Get_first@?$_Compressed_pair@V?$allocator@UPluginEntry@tablemax@@@std@@V?$_Vector_val@U?$_Simple_types@UPluginEntry@tablemax@@@std@@@2@$00@std@@QEAAAEAV?$allocator@UPluginEntry@tablemax@@@2@XZ
	?_Get_first@?$_Compressed_pair@V?$allocator@V?$_List_unchecked_iterator@V?$_List_val@U?$_List_simple_types@U?$pair@QEAXUConnectionEntry@tablemax@@@std@@@std@@@std@@@std@@@std@@V?$_Vector_val@U?$_Simple_types@V?$_List_unchecked_iterator@V?$_List_val@U?$_List_simple_types@U?$pair@QEAXUConnectionEntry@tablemax@@@std@@@std@@@std@@@std@@@std@@@2@$00@std@@QEAAAEAV?$allocator@V?$_List_unchecked_iterator@V?$_List_val@U?$_List_simple_types@U?$pair@QEAXUConnectionEntry@tablemax@@@std@@@std@@@std@@@std@@@2@XZ
	?_Get_first@?$_Compressed_pair@V?$allocator@V?$_List_unchecked_iterator@V?$_List_val@U?$_List_simple_types@U?$pair@QEAXUConnectionEntry@tablemax@@@std@@@std@@@std@@@std@@@std@@V?$_Vector_val@U?$_Simple_types@V?$_List_unchecked_iterator@V?$_List_val@U?$_List_simple_types@U?$pair@QEAXUConnectionEntry@tablemax@@@std@@@std@@@std@@@std@@@std@@@2@$00@std@@QEBAAEBV?$allocator@V?$_List_unchecked_iterator@V?$_List_val@U?$_List_simple_types@U?$pair@QEAXUConnectionEntry@tablemax@@@std@@@std@@@std@@@std@@@2@XZ
	?_Get_first@?$_Compressed_pair@V?$allocator@V?$basic_string@DU?$char_traits@D@std@@V?$allocator@D@2@@std@@@std@@V?$_Vector_val@U?$_Simple_types@V?$basic_string@DU?$char_traits@D@std@@V?$allocator@D@2@@std@@@std@@@2@$00@std@@QEAAAEAV?$allocator@V?$basic_string@DU?$char_traits@D@std@@V?$allocator@D@2@@std@@@2@XZ
	?_Get_first@?$_Compressed_pair@V?$allocator@V?$vector@U?$pair@V?$basic_string@DU?$char_traits@D@std@@V?$allocator@D@2@@std@@V12@@std@@V?$allocator@U?$pair@V?$basic_string@DU?$char_traits@D@std@@V?$allocator@D@2@@std@@V12@@std@@@2@@std@@@std@@V?$_Vector_val@U?$_Simple_types@V?$vector@U?$pair@V?$basic_string@DU?$char_traits@D@std@@V?$allocator@D@2@@std@@V12@@std@@V?$allocator@U?$pair@V?$basic_string@DU?$char_traits@D@std@@V?$allocator@D@2@@std@@V12@@std@@@2@@std@@@std@@@2@$00@std@@QEAAAEAV?$allocator@V?$vector@U?$pair@V?$basic_string@DU?$char_traits@D@std@@V?$allocator@D@2@@std@@V12@@std@@V?$allocator@U?$pair@V?$basic_string@DU?$char_traits@D@std@@V?$allocator@D@2@@std@@V12@@std@@@2@@std@@@2@XZ
	?_Get_max_bucket_size@?$_Uhash_compare@PEAXU?$hash@PEAX@std@@U?$equal_to@PEAX@2@@std@@QEAAAEAMXZ
	?_Get_max_bucket_size@?$_Uhash_compare@PEAXU?$hash@PEAX@std@@U?$equal_to@PEAX@2@@std@@QEBAAEBMXZ
	?_Getal@?$basic_string@DU?$char_traits@D@std@@V?$allocator@D@2@@std@@AEAAAEAV?$allocator@D@2@XZ
	?_Getal@?$basic_string@DU?$char_traits@D@std@@V?$allocator@D@2@@std@@AEBAAEBV?$allocator@D@2@XZ
	?_Getal@?$list@U?$pair@QEAXUConnectionEntry@tablemax@@@std@@V?$allocator@U?$pair@QEAXUConnectionEntry@tablemax@@@std@@@2@@std@@AEAAAEAV?$allocator@U?$_List_node@U?$pair@QEAXUConnectionEntry@tablemax@@@std@@PEAX@std@@@2@XZ
	?_Getal@?$list@U?$pair@QEAXUConnectionEntry@tablemax@@@std@@V?$allocator@U?$pair@QEAXUConnectionEntry@tablemax@@@std@@@2@@std@@AEBAAEBV?$allocator@U?$_List_node@U?$pair@QEAXUConnectionEntry@tablemax@@@std@@PEAX@std@@@2@XZ
	?_Getal@?$vector@U?$pair@V?$basic_string@DU?$char_traits@D@std@@V?$allocator@D@2@@std@@V12@@std@@V?$allocator@U?$pair@V?$basic_string@DU?$char_traits@D@std@@V?$allocator@D@2@@std@@V12@@std@@@2@@std@@AEAAAEAV?$allocator@U?$pair@V?$basic_string@DU?$char_traits@D@std@@V?$allocator@D@2@@std@@V12@@std@@@2@XZ
	?_Getal@?$vector@UColumnInfo@tablemax@@V?$allocator@UColumnInfo@tablemax@@@std@@@std@@AEAAAEAV?$allocator@UColumnInfo@tablemax@@@2@XZ
	?_Getal@?$vector@ULoadedPlugin@tablemax@@V?$allocator@ULoadedPlugin@tablemax@@@std@@@std@@AEAAAEAV?$allocator@ULoadedPlugin@tablemax@@@2@XZ
	?_Getal@?$vector@ULoadedPlugin@tablemax@@V?$allocator@ULoadedPlugin@tablemax@@@std@@@std@@AEBAAEBV?$allocator@ULoadedPlugin@tablemax@@@2@XZ
	?_Getal@?$vector@UPluginEntry@tablemax@@V?$allocator@UPluginEntry@tablemax@@@std@@@std@@AEAAAEAV?$allocator@UPluginEntry@tablemax@@@2@XZ
	?_Getal@?$vector@V?$basic_string@DU?$char_traits@D@std@@V?$allocator@D@2@@std@@V?$allocator@V?$basic_string@DU?$char_traits@D@std@@V?$allocator@D@2@@std@@@2@@std@@AEAAAEAV?$allocator@V?$basic_string@DU?$char_traits@D@std@@V?$allocator@D@2@@std@@@2@XZ
	?_Getal@?$vector@V?$vector@U?$pair@V?$basic_string@DU?$char_traits@D@std@@V?$allocator@D@2@@std@@V12@@std@@V?$allocator@U?$pair@V?$basic_string@DU?$char_traits@D@std@@V?$allocator@D@2@@std@@V12@@std@@@2@@std@@V?$allocator@V?$vector@U?$pair@V?$basic_string@DU?$char_traits@D@std@@V?$allocator@D@2@@std@@V12@@std@@V?$allocator@U?$pair@V?$basic_string@DU?$char_traits@D@std@@V?$allocator@D@2@@std@@V12@@std@@@2@@std@@@2@@std@@AEAAAEAV?$allocator@V?$vector@U?$pair@V?$basic_string@DU?$char_traits@D@std@@V?$allocator@D@2@@std@@V12@@std@@V?$allocator@U?$pair@V?$basic_string@DU?$char_traits@D@std@@V?$allocator@D@2@@std@@V12@@std@@@2@@std@@@2@XZ
	?_Getfacet@locale@std@@QEBAPEBVfacet@12@_K@Z
	?_Getstate@?$basic_stringbuf@DU?$char_traits@D@std@@V?$allocator@D@2@@std@@CAHH@Z
	?_Insert_new_node_before@?$_Hash@V?$_Umap_traits@PEAXUConnectionEntry@tablemax@@V?$_Uhash_compare@PEAXU?$hash@PEAX@std@@U?$equal_to@PEAX@2@@std@@V?$allocator@U?$pair@QEAXUConnectionEntry@tablemax@@@std@@@4@$0A@@std@@@std@@IEAAPEAU?$_List_node@U?$pair@QEAXUConnectionEntry@tablemax@@@std@@PEAX@2@_KQEAU32@1@Z
	?_Large_mode_engaged@?$_String_val@U?$_Simple_types@D@std@@@std@@QEBA_NXZ
	?_Make_iter@?$list@U?$pair@QEAXUConnectionEntry@tablemax@@@std@@V?$allocator@U?$pair@QEAXUConnectionEntry@tablemax@@@std@@@2@@std@@QEBA?AV?$_List_iterator@V?$_List_val@U?$_List_simple_types@U?$pair@QEAXUConnectionEntry@tablemax@@@std@@@std@@@std@@@2@PEAU?$_List_node@U?$pair@QEAXUConnectionEntry@tablemax@@@std@@PEAX@2@@Z
	?_Maklocwcs@std@@YAPEA_WPEB_W@Z
	?_Max_bucket_size@?$_Hash@V?$_Umap_traits@PEAXUConnectionEntry@tablemax@@V?$_Uhash_compare@PEAXU?$hash@PEAX@std@@U?$equal_to@PEAX@2@@std@@V?$allocator@U?$pair@QEAXUConnectionEntry@tablemax@@@std@@@4@$0A@@std@@@std@@IEAAAEAMXZ
	?_Max_bucket_size@?$_Hash@V?$_Umap_traits@PEAXUConnectionEntry@tablemax@@V?$_Uhash_compare@PEAXU?$hash@PEAX@std@@U?$equal_to@PEAX@2@@std@@V?$allocator@U?$pair@QEAXUConnectionEntry@tablemax@@@std@@@4@$0A@@std@@@std@@IEBAAEBMXZ
	?_Min_load_factor_buckets@?$_Hash@V?$_Umap_traits@PEAXUConnectionEntry@tablemax@@V?$_Uhash_compare@PEAXU?$hash@PEAX@std@@U?$equal_to@PEAX@2@@std@@V?$allocator@U?$pair@QEAXUConnectionEntry@tablemax@@@std@@@4@$0A@@std@@@std@@IEBA_K_K@Z
	?_Mymtx@_Mutex_base@std@@AEAAPEAU_Mtx_internal_imp_t@@XZ
	?_Myptr@?$_String_val@U?$_Simple_types@D@std@@@std@@QEAAPEADXZ
	?_Myptr@?$_String_val@U?$_Simple_types@D@std@@@std@@QEBAPEBDXZ
	?_Orphan_all@_Container_base0@std@@QEAAXXZ
	?_Orphan_non_end@?$_List_val@U?$_List_simple_types@U?$pair@QEAXUConnectionEntry@tablemax@@@std@@@std@@@std@@QEAAXXZ
	?_Orphan_ptr2@?$_List_val@U?$_List_simple_types@U?$pair@QEAXUConnectionEntry@tablemax@@@std@@@std@@@std@@QEAAXPEAU?$_List_node@U?$pair@QEAXUConnectionEntry@tablemax@@@std@@PEAX@2@@Z
	?_Orphan_range@?$vector@ULoadedPlugin@tablemax@@V?$allocator@ULoadedPlugin@tablemax@@@std@@@std@@AEBAXPEAULoadedPlugin@tablemax@@0@Z
	?_Rehash_for_1@?$_Hash@V?$_Umap_traits@PEAXUConnectionEntry@tablemax@@V?$_Uhash_compare@PEAXU?$hash@PEAX@std@@U?$equal_to@PEAX@2@@std@@V?$allocator@U?$pair@QEAXUConnectionEntry@tablemax@@@std@@@4@$0A@@std@@@std@@IEAAXXZ
	?_Release@?$_Alloc_construct_ptr@V?$allocator@U?$_List_node@U?$pair@QEAXUConnectionEntry@tablemax@@@std@@PEAX@std@@@std@@@std@@QEAAPEAU?$_List_node@U?$pair@QEAXUConnectionEntry@tablemax@@@std@@PEAX@2@XZ
	?_Release@?$_Uninitialized_backout@PEAV?$_List_unchecked_iterator@V?$_List_val@U?$_List_simple_types@U?$pair@QEAXUConnectionEntry@tablemax@@@std@@@std@@@std@@@std@@@std@@QEAAPEAV?$_List_unchecked_iterator@V?$_List_val@U?$_List_simple_types@U?$pair@QEAXUConnectionEntry@tablemax@@@std@@@std@@@std@@@2@XZ
	?_Release@?$_Uninitialized_backout_al@V?$allocator@ULoadedPlugin@tablemax@@@std@@@std@@QEAAPEAULoadedPlugin@tablemax@@XZ
	?_Release@_Fake_proxy_ptr_impl@std@@QEAAXXZ
	?_Swap_proxy_and_iterators@?$basic_string@DU?$char_traits@D@std@@V?$allocator@D@2@@std@@AEAAXAEAV12@@Z
	?_Swap_proxy_and_iterators@_Container_base0@std@@QEAAXAEAU12@@Z
	?_Switch_to_buf@_Bxty@?$_String_val@U?$_Simple_types@D@std@@@std@@QEAAXXZ
	?_Take_contents@?$_Vector_val@U?$_Simple_types@UColumnInfo@tablemax@@@std@@@std@@QEAAXAEAV12@@Z
	?_Take_contents@?$basic_string@DU?$char_traits@D@std@@V?$allocator@D@2@@std@@AEAAXAEAV12@@Z
	?_Throw_bad_array_new_length@std@@YAXXZ
	?_Throw_bad_cast@std@@YAXXZ
	?_Tidy@?$_Hash_vec@V?$allocator@V?$_List_unchecked_iterator@V?$_List_val@U?$_List_simple_types@U?$pair@QEAXUConnectionEntry@tablemax@@@std@@@std@@@std@@@std@@@std@@@std@@QEAAXXZ
	?_Tidy@?$basic_stringbuf@DU?$char_traits@D@std@@V?$allocator@D@2@@std@@IEAAXXZ
	?_Tidy@?$list@U?$pair@QEAXUConnectionEntry@tablemax@@@std@@V?$allocator@U?$pair@QEAXUConnectionEntry@tablemax@@@std@@@2@@std@@AEAAXXZ
	?_Tidy@?$vector@U?$pair@V?$basic_string@DU?$char_traits@D@std@@V?$allocator@D@2@@std@@V12@@std@@V?$allocator@U?$pair@V?$basic_string@DU?$char_traits@D@std@@V?$allocator@D@2@@std@@V12@@std@@@2@@std@@AEAAXXZ
	?_Tidy@?$vector@UColumnInfo@tablemax@@V?$allocator@UColumnInfo@tablemax@@@std@@@std@@AEAAXXZ
	?_Tidy@?$vector@ULoadedPlugin@tablemax@@V?$allocator@ULoadedPlugin@tablemax@@@std@@@std@@AEAAXXZ
	?_Tidy@?$vector@UPluginEntry@tablemax@@V?$allocator@UPluginEntry@tablemax@@@std@@@std@@AEAAXXZ
	?_Tidy@?$vector@V?$basic_string@DU?$char_traits@D@std@@V?$allocator@D@2@@std@@V?$allocator@V?$basic_string@DU?$char_traits@D@std@@V?$allocator@D@2@@std@@@2@@std@@AEAAXXZ
	?_Tidy@?$vector@V?$vector@U?$pair@V?$basic_string@DU?$char_traits@D@std@@V?$allocator@D@2@@std@@V12@@std@@V?$allocator@U?$pair@V?$basic_string@DU?$char_traits@D@std@@V?$allocator@D@2@@std@@V12@@std@@@2@@std@@V?$allocator@V?$vector@U?$pair@V?$basic_string@DU?$char_traits@D@std@@V?$allocator@D@2@@std@@V12@@std@@V?$allocator@U?$pair@V?$basic_string@DU?$char_traits@D@std@@V?$allocator@D@2@@std@@V12@@std@@@2@@std@@@2@@std@@AEAAXXZ
	?_Tidy_deallocate@?$basic_string@DU?$char_traits@D@std@@V?$allocator@D@2@@std@@AEAAXXZ
	?_Unchecked_begin@?$_Hash@V?$_Umap_traits@PEAXUConnectionEntry@tablemax@@V?$_Uhash_compare@PEAXU?$hash@PEAX@std@@U?$equal_to@PEAX@2@@std@@V?$allocator@U?$pair@QEAXUConnectionEntry@tablemax@@@std@@@4@$0A@@std@@@std@@QEAA?AV?$_List_unchecked_iterator@V?$_List_val@U?$_List_simple_types@U?$pair@QEAXUConnectionEntry@tablemax@@@std@@@std@@@std@@@2@XZ
	?_Unchecked_begin@?$list@U?$pair@QEAXUConnectionEntry@tablemax@@@std@@V?$allocator@U?$pair@QEAXUConnectionEntry@tablemax@@@std@@@2@@std@@QEAA?AV?$_List_unchecked_iterator@V?$_List_val@U?$_List_simple_types@U?$pair@QEAXUConnectionEntry@tablemax@@@std@@@std@@@std@@@2@XZ
	?_Unchecked_begin@?$vector@UPluginEntry@tablemax@@V?$allocator@UPluginEntry@tablemax@@@std@@@std@@QEAAPEAUPluginEntry@tablemax@@XZ
	?_Unchecked_end@?$_Hash@V?$_Umap_traits@PEAXUConnectionEntry@tablemax@@V?$_Uhash_compare@PEAXU?$hash@PEAX@std@@U?$equal_to@PEAX@2@@std@@V?$allocator@U?$pair@QEAXUConnectionEntry@tablemax@@@std@@@4@$0A@@std@@@std@@QEAA?AV?$_List_unchecked_iterator@V?$_List_val@U?$_List_simple_types@U?$pair@QEAXUConnectionEntry@tablemax@@@std@@@std@@@std@@@2@XZ
	?_Unchecked_end@?$list@U?$pair@QEAXUConnectionEntry@tablemax@@@std@@V?$allocator@U?$pair@QEAXUConnectionEntry@tablemax@@@std@@@2@@std@@QEAA?AV?$_List_unchecked_iterator@V?$_List_val@U?$_List_simple_types@U?$pair@QEAXUConnectionEntry@tablemax@@@std@@@std@@@std@@@2@XZ
	?_Unchecked_end@?$vector@UPluginEntry@tablemax@@V?$allocator@UPluginEntry@tablemax@@@std@@@std@@QEAAPEAUPluginEntry@tablemax@@XZ
	?_Unchecked_erase@?$_Hash@V?$_Umap_traits@PEAXUConnectionEntry@tablemax@@V?$_Uhash_compare@PEAXU?$hash@PEAX@std@@U?$equal_to@PEAX@2@@std@@V?$allocator@U?$pair@QEAXUConnectionEntry@tablemax@@@std@@@4@$0A@@std@@@std@@AEAAPEAU?$_List_node@U?$pair@QEAXUConnectionEntry@tablemax@@@std@@PEAX@2@PEAU32@@Z
	?_Unchecked_erase@?$_Hash@V?$_Umap_traits@PEAXUConnectionEntry@tablemax@@V?$_Uhash_compare@PEAXU?$hash@PEAX@std@@U?$equal_to@PEAX@2@@std@@V?$allocator@U?$pair@QEAXUConnectionEntry@tablemax@@@std@@@4@$0A@@std@@@std@@AEAAPEAU?$_List_node@U?$pair@QEAXUConnectionEntry@tablemax@@@std@@PEAX@2@PEAU32@QEAU32@@Z
	?_Unchecked_erase@?$list@U?$pair@QEAXUConnectionEntry@tablemax@@@std@@V?$allocator@U?$pair@QEAXUConnectionEntry@tablemax@@@std@@@2@@std@@AEAAPEAU?$_List_node@U?$pair@QEAXUConnectionEntry@tablemax@@@std@@PEAX@2@QEAU32@@Z
	?_Unchecked_splice@?$_List_val@U?$_List_simple_types@U?$pair@QEAXUConnectionEntry@tablemax@@@std@@@std@@@std@@SAPEAU?$_List_node@U?$pair@QEAXUConnectionEntry@tablemax@@@std@@PEAX@2@QEAU32@00@Z
	?_Verify_ownership_levels@_Mutex_base@std@@IEAA_NXZ
	?_Xlen_string@std@@YAXXZ
	?_Xlength@?$vector@ULoadedPlugin@tablemax@@V?$allocator@ULoadedPlugin@tablemax@@@std@@@std@@CAXXZ
	?allocate@?$allocator@D@std@@QEAAPEAD_K@Z
	?allocate@?$allocator@U?$_List_node@U?$pair@QEAXUConnectionEntry@tablemax@@@std@@PEAX@std@@@std@@QEAAPEAU?$_List_node@U?$pair@QEAXUConnectionEntry@tablemax@@@std@@PEAX@2@_K@Z
	?allocate@?$allocator@ULoadedPlugin@tablemax@@@std@@QEAAPEAULoadedPlugin@tablemax@@_K@Z
	?allocate@?$allocator@V?$_List_unchecked_iterator@V?$_List_val@U?$_List_simple_types@U?$pair@QEAXUConnectionEntry@tablemax@@@std@@@std@@@std@@@std@@@std@@QEAAPEAV?$_List_unchecked_iterator@V?$_List_val@U?$_List_simple_types@U?$pair@QEAXUConnectionEntry@tablemax@@@std@@@std@@@std@@@2@_K@Z
	?append@?$basic_string@DU?$char_traits@D@std@@V?$allocator@D@2@@std@@QEAAAEAV12@QEBD@Z
	?assign@?$_Narrow_char_traits@DH@std@@SAXAEADAEBD@Z
	?assign@?$basic_string@DU?$char_traits@D@std@@V?$allocator@D@2@@std@@QEAAAEAV12@QEBD@Z
	?assign@?$basic_string@DU?$char_traits@D@std@@V?$allocator@D@2@@std@@QEAAAEAV12@QEBD_K@Z
	?bucket@?$_Hash@V?$_Umap_traits@PEAXUConnectionEntry@tablemax@@V?$_Uhash_compare@PEAXU?$hash@PEAX@std@@U?$equal_to@PEAX@2@@std@@V?$allocator@U?$pair@QEAXUConnectionEntry@tablemax@@@std@@@4@$0A@@std@@@std@@QEBA_KAEBQEAX@Z
	?bucket_count@?$_Hash@V?$_Umap_traits@PEAXUConnectionEntry@tablemax@@V?$_Uhash_compare@PEAXU?$hash@PEAX@std@@U?$equal_to@PEAX@2@@std@@V?$allocator@U?$pair@QEAXUConnectionEntry@tablemax@@@std@@@4@$0A@@std@@@std@@QEBA_KXZ
	?c_str@?$basic_string@DU?$char_traits@D@std@@V?$allocator@D@2@@std@@QEBAPEBDXZ
	?capacity@?$_Hash_vec@V?$allocator@V?$_List_unchecked_iterator@V?$_List_val@U?$_List_simple_types@U?$pair@QEAXUConnectionEntry@tablemax@@@std@@@std@@@std@@@std@@@std@@@std@@QEBA_KXZ
	?capacity@?$vector@ULoadedPlugin@tablemax@@V?$allocator@ULoadedPlugin@tablemax@@@std@@@std@@QEBA_KXZ
	?clear@?$_Hash@V?$_Umap_traits@PEAXUConnectionEntry@tablemax@@V?$_Uhash_compare@PEAXU?$hash@PEAX@std@@U?$equal_to@PEAX@2@@std@@V?$allocator@U?$pair@QEAXUConnectionEntry@tablemax@@@std@@@4@$0A@@std@@@std@@QEAAXXZ
	?clear@?$list@U?$pair@QEAXUConnectionEntry@tablemax@@@std@@V?$allocator@U?$pair@QEAXUConnectionEntry@tablemax@@@std@@@2@@std@@QEAAXXZ
	?clear@?$vector@UPluginEntry@tablemax@@V?$allocator@UPluginEntry@tablemax@@@std@@@std@@QEAAXXZ
	?compare@?$_Narrow_char_traits@DH@std@@SAHQEBD0_K@Z
	?copy@?$_Char_traits@DH@std@@SAPEADQEADQEBD_K@Z
	?count@?$duration@_JU?$ratio@$00$00@std@@@chrono@std@@QEBA_JXZ
	?count@?$duration@_JU?$ratio@$00$0JIJGIA@@std@@@chrono@std@@QEBA_JXZ
	?data@?$basic_string@DU?$char_traits@D@std@@V?$allocator@D@2@@std@@QEBAPEBDXZ
	?deallocate@?$_Default_allocator_traits@V?$allocator@U?$_List_node@U?$pair@QEAXUConnectionEntry@tablemax@@@std@@PEAX@std@@@std@@@std@@SAXAEAV?$allocator@U?$_List_node@U?$pair@QEAXUConnectionEntry@tablemax@@@std@@PEAX@std@@@2@QEAU?$_List_node@U?$pair@QEAXUConnectionEntry@tablemax@@@std@@PEAX@2@_K@Z
	?deallocate@?$allocator@D@std@@QEAAXQEAD_K@Z
	?deallocate@?$allocator@U?$_List_node@U?$pair@QEAXUConnectionEntry@tablemax@@@std@@PEAX@std@@@std@@QEAAXQEAU?$_List_node@U?$pair@QEAXUConnectionEntry@tablemax@@@std@@PEAX@2@_K@Z
	?deallocate@?$allocator@U?$pair@V?$basic_string@DU?$char_traits@D@std@@V?$allocator@D@2@@std@@V12@@std@@@std@@QEAAXQEAU?$pair@V?$basic_string@DU?$char_traits@D@std@@V?$allocator@D@2@@std@@V12@@2@_K@Z
	?deallocate@?$allocator@UColumnInfo@tablemax@@@std@@QEAAXQEAUColumnInfo@tablemax@@_K@Z
	?deallocate@?$allocator@ULoadedPlugin@tablemax@@@std@@QEAAXQEAULoadedPlugin@tablemax@@_K@Z
	?deallocate@?$allocator@UPluginEntry@tablemax@@@std@@QEAAXQEAUPluginEntry@tablemax@@_K@Z
	?deallocate@?$allocator@V?$_List_unchecked_iterator@V?$_List_val@U?$_List_simple_types@U?$pair@QEAXUConnectionEntry@tablemax@@@std@@@std@@@std@@@std@@@std@@QEAAXQEAV?$_List_unchecked_iterator@V?$_List_val@U?$_List_simple_types@U?$pair@QEAXUConnectionEntry@tablemax@@@std@@@std@@@std@@@2@_K@Z
	?deallocate@?$allocator@V?$basic_string@DU?$char_traits@D@std@@V?$allocator@D@2@@std@@@std@@QEAAXQEAV?$basic_string@DU?$char_traits@D@std@@V?$allocator@D@2@@2@_K@Z
	?deallocate@?$allocator@V?$vector@U?$pair@V?$basic_string@DU?$char_traits@D@std@@V?$allocator@D@2@@std@@V12@@std@@V?$allocator@U?$pair@V?$basic_string@DU?$char_traits@D@std@@V?$allocator@D@2@@std@@V12@@std@@@2@@std@@@std@@QEAAXQEAV?$vector@U?$pair@V?$basic_string@DU?$char_traits@D@std@@V?$allocator@D@2@@std@@V12@@std@@V?$allocator@U?$pair@V?$basic_string@DU?$char_traits@D@std@@V?$allocator@D@2@@std@@V12@@std@@@2@@2@_K@Z
	?empty@?$vector@V?$vector@U?$pair@V?$basic_string@DU?$char_traits@D@std@@V?$allocator@D@2@@std@@V12@@std@@V?$allocator@U?$pair@V?$basic_string@DU?$char_traits@D@std@@V?$allocator@D@2@@std@@V12@@std@@@2@@std@@V?$allocator@V?$vector@U?$pair@V?$basic_string@DU?$char_traits@D@std@@V?$allocator@D@2@@std@@V12@@std@@V?$allocator@U?$pair@V?$basic_string@DU?$char_traits@D@std@@V?$allocator@D@2@@std@@V12@@std@@@2@@std@@@2@@std@@QEBA_NXZ
	?end@?$_Hash@V?$_Umap_traits@PEAXUConnectionEntry@tablemax@@V?$_Uhash_compare@PEAXU?$hash@PEAX@std@@U?$equal_to@PEAX@2@@std@@V?$allocator@U?$pair@QEAXUConnectionEntry@tablemax@@@std@@@4@$0A@@std@@@std@@QEAA?AV?$_List_iterator@V?$_List_val@U?$_List_simple_types@U?$pair@QEAXUConnectionEntry@tablemax@@@std@@@std@@@std@@@2@XZ
	?end@?$list@U?$pair@QEAXUConnectionEntry@tablemax@@@std@@V?$allocator@U?$pair@QEAXUConnectionEntry@tablemax@@@std@@@2@@std@@QEAA?AV?$_List_iterator@V?$_List_val@U?$_List_simple_types@U?$pair@QEAXUConnectionEntry@tablemax@@@std@@@std@@@std@@@2@XZ
	?eof@?$_Narrow_char_traits@DH@std@@SAHXZ
	?eq@?$_Narrow_char_traits@DH@std@@SA_NDD@Z
	?eq_int_type@?$_Narrow_char_traits@DH@std@@SA_NHH@Z
	?failed@?$ostreambuf_iterator@DU?$char_traits@D@std@@@std@@QEBA_NXZ
	?find@?$_Hash@V?$_Umap_traits@PEAXUConnectionEntry@tablemax@@V?$_Uhash_compare@PEAXU?$hash@PEAX@std@@U?$equal_to@PEAX@2@@std@@V?$allocator@U?$pair@QEAXUConnectionEntry@tablemax@@@std@@@4@$0A@@std@@@std@@QEAA?AV?$_List_iterator@V?$_List_val@U?$_List_simple_types@U?$pair@QEAXUConnectionEntry@tablemax@@@std@@@std@@@std@@@2@AEBQEAX@Z
	?length@?$_Narrow_char_traits@DH@std@@SA_KQEBD@Z
	?lock@_Mutex_base@std@@QEAAXXZ
	?log@tablemax@@YAXW4LogLevel@1@AEBV?$basic_string@DU?$char_traits@D@std@@V?$allocator@D@2@@std@@1@Z
	?max_load_factor@?$_Hash@V?$_Umap_traits@PEAXUConnectionEntry@tablemax@@V?$_Uhash_compare@PEAXU?$hash@PEAX@std@@U?$equal_to@PEAX@2@@std@@V?$allocator@U?$pair@QEAXUConnectionEntry@tablemax@@@std@@@4@$0A@@std@@@std@@QEBAMXZ
	?max_size@?$_Default_allocator_traits@V?$allocator@D@std@@@std@@SA_KAEBV?$allocator@D@2@@Z
	?max_size@?$_Default_allocator_traits@V?$allocator@U?$_List_node@U?$pair@QEAXUConnectionEntry@tablemax@@@std@@PEAX@std@@@std@@@std@@SA_KAEBV?$allocator@U?$_List_node@U?$pair@QEAXUConnectionEntry@tablemax@@@std@@PEAX@std@@@2@@Z
	?max_size@?$_Default_allocator_traits@V?$allocator@ULoadedPlugin@tablemax@@@std@@@std@@SA_KAEBV?$allocator@ULoadedPlugin@tablemax@@@2@@Z
	?max_size@?$_Default_allocator_traits@V?$allocator@V?$_List_unchecked_iterator@V?$_List_val@U?$_List_simple_types@U?$pair@QEAXUConnectionEntry@tablemax@@@std@@@std@@@std@@@std@@@std@@@std@@SA_KAEBV?$allocator@V?$_List_unchecked_iterator@V?$_List_val@U?$_List_simple_types@U?$pair@QEAXUConnectionEntry@tablemax@@@std@@@std@@@std@@@std@@@2@@Z
	?max_size@?$_Hash_vec@V?$allocator@V?$_List_unchecked_iterator@V?$_List_val@U?$_List_simple_types@U?$pair@QEAXUConnectionEntry@tablemax@@@std@@@std@@@std@@@std@@@std@@@std@@QEBA_KXZ
	?max_size@?$basic_string@DU?$char_traits@D@std@@V?$allocator@D@2@@std@@QEBA_KXZ
	?max_size@?$list@U?$pair@QEAXUConnectionEntry@tablemax@@@std@@V?$allocator@U?$pair@QEAXUConnectionEntry@tablemax@@@std@@@2@@std@@QEBA_KXZ
	?max_size@?$vector@ULoadedPlugin@tablemax@@V?$allocator@ULoadedPlugin@tablemax@@@std@@@std@@QEBA_KXZ
	?move@?$_Char_traits@DH@std@@SAPEADQEADQEBD_K@Z
	?not_eof@?$_Narrow_char_traits@DH@std@@SAHH@Z
	?now@system_clock@chrono@std@@SA?AV?$time_point@Usystem_clock@chrono@std@@V?$duration@_JU?$ratio@$00$0JIJGIA@@std@@@23@@23@XZ
	?overflow@?$basic_stringbuf@DU?$char_traits@D@std@@V?$allocator@D@2@@std@@MEAAHH@Z
	?pbackfail@?$basic_stringbuf@DU?$char_traits@D@std@@V?$allocator@D@2@@std@@MEAAHH@Z
	?pointer_to@?$pointer_traits@PEAD@std@@SAPEADAEAD@Z
	?pointer_to@?$pointer_traits@PEAU?$pair@QEAXUConnectionEntry@tablemax@@@std@@@std@@SAPEAU?$pair@QEAXUConnectionEntry@tablemax@@@2@AEAU32@@Z
	?push_back@?$vector@ULoadedPlugin@tablemax@@V?$allocator@ULoadedPlugin@tablemax@@@std@@@std@@QEAAX$$QEAULoadedPlugin@tablemax@@@Z
	?release@?$unique_ptr@VIResultStream@tablemax@@U?$default_delete@VIResultStream@tablemax@@@std@@@std@@QEAAPEAVIResultStream@tablemax@@XZ
	?release@?$unique_ptr@V_Facet_base@std@@U?$default_delete@V_Facet_base@std@@@2@@std@@QEAAPEAV_Facet_base@2@XZ
	?reset@?$unique_ptr@VIResultStream@tablemax@@U?$default_delete@VIResultStream@tablemax@@@std@@@std@@QEAAXPEAVIResultStream@tablemax@@@Z
	?scan_plugin_directory@tablemax@@YA?AV?$vector@ULoadedPlugin@tablemax@@V?$allocator@ULoadedPlugin@tablemax@@@std@@@std@@AEBV?$basic_string@DU?$char_traits@D@std@@V?$allocator@D@2@@3@@Z
	?seekoff@?$basic_stringbuf@DU?$char_traits@D@std@@V?$allocator@D@2@@std@@MEAA?AV?$fpos@U_Mbstatet@@@2@_JHH@Z
	?seekpos@?$basic_stringbuf@DU?$char_traits@D@std@@V?$allocator@D@2@@std@@MEAA?AV?$fpos@U_Mbstatet@@@2@V32@H@Z
	?select_on_container_copy_construction@?$_Default_allocator_traits@V?$allocator@D@std@@@std@@SA?AV?$allocator@D@2@AEBV32@@Z
	?set_log_level@tablemax@@YAXW4LogLevel@1@@Z
	?size@?$_Hash_vec@V?$allocator@V?$_List_unchecked_iterator@V?$_List_val@U?$_List_simple_types@U?$pair@QEAXUConnectionEntry@tablemax@@@std@@@std@@@std@@@std@@@std@@@std@@QEBA_KXZ
	?size@?$basic_string@DU?$char_traits@D@std@@V?$allocator@D@2@@std@@QEBA_KXZ
	?size@?$vector@U?$pair@V?$basic_string@DU?$char_traits@D@std@@V?$allocator@D@2@@std@@V12@@std@@V?$allocator@U?$pair@V?$basic_string@DU?$char_traits@D@std@@V?$allocator@D@2@@std@@V12@@std@@@2@@std@@QEBA_KXZ
	?size@?$vector@UColumnInfo@tablemax@@V?$allocator@UColumnInfo@tablemax@@@std@@@std@@QEBA_KXZ
	?size@?$vector@UPluginEntry@tablemax@@V?$allocator@UPluginEntry@tablemax@@@std@@@std@@QEBA_KXZ
	?size@?$vector@V?$basic_string@DU?$char_traits@D@std@@V?$allocator@D@2@@std@@V?$allocator@V?$basic_string@DU?$char_traits@D@std@@V?$allocator@D@2@@std@@@2@@std@@QEBA_KXZ
	?size@?$vector@V?$vector@U?$pair@V?$basic_string@DU?$char_traits@D@std@@V?$allocator@D@2@@std@@V12@@std@@V?$allocator@U?$pair@V?$basic_string@DU?$char_traits@D@std@@V?$allocator@D@2@@std@@V12@@std@@@2@@std@@V?$allocator@V?$vector@U?$pair@V?$basic_string@DU?$char_traits@D@std@@V?$allocator@D@2@@std@@V12@@std@@V?$allocator@U?$pair@V?$basic_string@DU?$char_traits@D@std@@V?$allocator@D@2@@std@@V12@@std@@@2@@std@@@2@@std@@QEBA_KXZ
	?str@?$basic_ostringstream@DU?$char_traits@D@std@@V?$allocator@D@2@@std@@QEBA?AV?$basic_string@DU?$char_traits@D@std@@V?$allocator@D@2@@2@XZ
	?str@?$basic_stringbuf@DU?$char_traits@D@std@@V?$allocator@D@2@@std@@QEBA?AV?$basic_string@DU?$char_traits@D@std@@V?$allocator@D@2@@2@XZ
	?time_since_epoch@?$time_point@Usystem_clock@chrono@std@@V?$duration@_JU?$ratio@$00$0JIJGIA@@std@@@23@@chrono@std@@QEBA?AV?$duration@_JU?$ratio@$00$0JIJGIA@@std@@@23@XZ
	?to_char_type@?$_Narrow_char_traits@DH@std@@SADH@Z
	?to_int_type@?$_Narrow_char_traits@DH@std@@SAHD@Z
	?to_time_t@system_clock@chrono@std@@SA_JAEBV?$time_point@Usystem_clock@chrono@std@@V?$duration@_JU?$ratio@$00$0JIJGIA@@std@@@23@@23@@Z
	?underflow@?$basic_stringbuf@DU?$char_traits@D@std@@V?$allocator@D@2@@std@@MEAAHXZ
	?unlock@_Mutex_base@std@@QEAAXXZ
	?what@exception@std@@UEBAPEBDXZ
	engine_connect
	engine_disconnect
	engine_execute
	engine_free_string
	engine_get_error
	engine_get_table_schema
	engine_get_version
	engine_has_plugin
	engine_init
	engine_list_tables
	engine_load_plugins
	engine_plugin_count
	engine_plugin_name
	engine_shutdown
	engine_test_connection
	localtime
	result_close
	result_column_count
	result_column_name
	result_has_more
	result_next_chunk
	result_row_count
	wmemcpy
